Archive member included because of file (symbol)

/Users/briangiori/dev/newt/blegpio/bin/nrf52_boot/apps/boot/boot.a(boot.o)
                              /usr/local/Cellar/gcc-arm-none-eabi-49/20150609/bin/../lib/gcc/arm-none-eabi/4.9.3/../../../../arm-none-eabi/lib/armv7e-m/crt0.o (main)
/Users/briangiori/dev/newt/blegpio/bin/nrf52_boot/fs/nffs/nffs.a(nffs.o)
                              /Users/briangiori/dev/newt/blegpio/bin/nrf52_boot/apps/boot/boot.a(boot.o) (nffs_detect)
/Users/briangiori/dev/newt/blegpio/bin/nrf52_boot/fs/nffs/nffs.a(nffs_cache.o)
                              /Users/briangiori/dev/newt/blegpio/bin/nrf52_boot/fs/nffs/nffs.a(nffs.o) (nffs_cache_clear)
/Users/briangiori/dev/newt/blegpio/bin/nrf52_boot/fs/nffs/nffs.a(nffs_config.o)
                              /Users/briangiori/dev/newt/blegpio/bin/nrf52_boot/fs/nffs/nffs.a(nffs.o) (nffs_config_init)
/Users/briangiori/dev/newt/blegpio/bin/nrf52_boot/fs/nffs/nffs.a(nffs_dir.o)
                              /Users/briangiori/dev/newt/blegpio/bin/nrf52_boot/fs/nffs/nffs.a(nffs.o) (nffs_dir_open)
/Users/briangiori/dev/newt/blegpio/bin/nrf52_boot/fs/nffs/nffs.a(nffs_file.o)
                              /Users/briangiori/dev/newt/blegpio/bin/nrf52_boot/fs/nffs/nffs.a(nffs.o) (nffs_file_open)
/Users/briangiori/dev/newt/blegpio/bin/nrf52_boot/fs/nffs/nffs.a(nffs_flash.o)
                              /Users/briangiori/dev/newt/blegpio/bin/nrf52_boot/fs/nffs/nffs.a(nffs_file.o) (nffs_flash_loc)
/Users/briangiori/dev/newt/blegpio/bin/nrf52_boot/fs/nffs/nffs.a(nffs_format.o)
                              /Users/briangiori/dev/newt/blegpio/bin/nrf52_boot/fs/nffs/nffs.a(nffs.o) (nffs_format_full)
/Users/briangiori/dev/newt/blegpio/bin/nrf52_boot/fs/nffs/nffs.a(nffs_hash.o)
                              /Users/briangiori/dev/newt/blegpio/bin/nrf52_boot/fs/nffs/nffs.a(nffs.o) (nffs_hash_id_is_dir)
/Users/briangiori/dev/newt/blegpio/bin/nrf52_boot/fs/nffs/nffs.a(nffs_inode.o)
                              /Users/briangiori/dev/newt/blegpio/bin/nrf52_boot/fs/nffs/nffs.a(nffs_file.o) (nffs_inode_entry_free)
/Users/briangiori/dev/newt/blegpio/bin/nrf52_boot/fs/nffs/nffs.a(nffs_misc.o)
                              /Users/briangiori/dev/newt/blegpio/bin/nrf52_boot/fs/nffs/nffs.a(nffs_format.o) (nffs_misc_validate_root_dir)
/Users/briangiori/dev/newt/blegpio/bin/nrf52_boot/fs/nffs/nffs.a(nffs_path.o)
                              /Users/briangiori/dev/newt/blegpio/bin/nrf52_boot/fs/nffs/nffs.a(nffs_file.o) (nffs_path_parser_new)
/Users/briangiori/dev/newt/blegpio/bin/nrf52_boot/fs/nffs/nffs.a(nffs_restore.o)
                              /Users/briangiori/dev/newt/blegpio/bin/nrf52_boot/fs/nffs/nffs.a(nffs.o) (nffs_restore_full)
/Users/briangiori/dev/newt/blegpio/bin/nrf52_boot/fs/nffs/nffs.a(nffs_write.o)
                              /Users/briangiori/dev/newt/blegpio/bin/nrf52_boot/fs/nffs/nffs.a(nffs.o) (nffs_write_to_file)
/Users/briangiori/dev/newt/blegpio/bin/nrf52_boot/fs/nffs/nffs.a(nffs_area.o)
                              /Users/briangiori/dev/newt/blegpio/bin/nrf52_boot/fs/nffs/nffs.a(nffs_restore.o) (nffs_area_magic_is_set)
/Users/briangiori/dev/newt/blegpio/bin/nrf52_boot/fs/nffs/nffs.a(nffs_block.o)
                              /Users/briangiori/dev/newt/blegpio/bin/nrf52_boot/fs/nffs/nffs.a(nffs_restore.o) (nffs_block_entry_alloc)
/Users/briangiori/dev/newt/blegpio/bin/nrf52_boot/fs/nffs/nffs.a(nffs_crc.o)
                              /Users/briangiori/dev/newt/blegpio/bin/nrf52_boot/fs/nffs/nffs.a(nffs_write.o) (nffs_crc_flash)
/Users/briangiori/dev/newt/blegpio/bin/nrf52_boot/fs/nffs/nffs.a(nffs_gc.o)
                              /Users/briangiori/dev/newt/blegpio/bin/nrf52_boot/fs/nffs/nffs.a(nffs_misc.o) (nffs_gc)
/Users/briangiori/dev/newt/blegpio/bin/nrf52_boot/hw/bsp/nrf52dk/nrf52dk.a(gcc_startup_nrf52.o)
                              (Reset_Handler)
/Users/briangiori/dev/newt/blegpio/bin/nrf52_boot/hw/bsp/nrf52dk/nrf52dk.a(system_nrf52.o)
                              /Users/briangiori/dev/newt/blegpio/bin/nrf52_boot/hw/bsp/nrf52dk/nrf52dk.a(gcc_startup_nrf52.o) (SystemInit)
/Users/briangiori/dev/newt/blegpio/bin/nrf52_boot/hw/hal/hal.a(flash_map.o)
                              /Users/briangiori/dev/newt/blegpio/bin/nrf52_boot/apps/boot/boot.a(boot.o) (flash_area_to_sectors)
/Users/briangiori/dev/newt/blegpio/bin/nrf52_boot/hw/hal/hal.a(hal_flash.o)
                              /Users/briangiori/dev/newt/blegpio/bin/nrf52_boot/apps/boot/boot.a(boot.o) (hal_flash_init)
/Users/briangiori/dev/newt/blegpio/bin/nrf52_boot/hw/mcu/nordic/nrf52xxx/nrf52xxx.a(hal_system_start.o)
                              /Users/briangiori/dev/newt/blegpio/bin/nrf52_boot/apps/boot/boot.a(boot.o) (system_start)
/Users/briangiori/dev/newt/blegpio/bin/nrf52_boot/libs/baselibc/baselibc.a(inline.o)
                              /usr/local/Cellar/gcc-arm-none-eabi-49/20150609/bin/../lib/gcc/arm-none-eabi/4.9.3/../../../../arm-none-eabi/lib/armv7e-m/crt0.o (exit)
/Users/briangiori/dev/newt/blegpio/bin/nrf52_boot/libs/baselibc/baselibc.a(lrand48.o)
                              /Users/briangiori/dev/newt/blegpio/bin/nrf52_boot/libs/baselibc/baselibc.a(inline.o) (lrand48)
/Users/briangiori/dev/newt/blegpio/bin/nrf52_boot/libs/baselibc/baselibc.a(malloc.o)
                              /Users/briangiori/dev/newt/blegpio/bin/nrf52_boot/fs/nffs/nffs.a(nffs_hash.o) (malloc)
/Users/briangiori/dev/newt/blegpio/bin/nrf52_boot/libs/baselibc/baselibc.a(memset.o)
                              /usr/local/Cellar/gcc-arm-none-eabi-49/20150609/bin/../lib/gcc/arm-none-eabi/4.9.3/../../../../arm-none-eabi/lib/armv7e-m/crt0.o (memset)
/Users/briangiori/dev/newt/blegpio/bin/nrf52_boot/libs/baselibc/baselibc.a(mynewt.o)
                              /Users/briangiori/dev/newt/blegpio/bin/nrf52_boot/libs/baselibc/baselibc.a(inline.o) (stdout)
/Users/briangiori/dev/newt/blegpio/bin/nrf52_boot/libs/baselibc/baselibc.a(srand48.o)
                              /Users/briangiori/dev/newt/blegpio/bin/nrf52_boot/libs/baselibc/baselibc.a(inline.o) (srand48)
/Users/briangiori/dev/newt/blegpio/bin/nrf52_boot/libs/baselibc/baselibc.a(strchr.o)
                              /Users/briangiori/dev/newt/blegpio/bin/nrf52_boot/fs/nffs/nffs.a(nffs_path.o) (strchr)
/Users/briangiori/dev/newt/blegpio/bin/nrf52_boot/libs/baselibc/baselibc.a(strcpy.o)
                              /Users/briangiori/dev/newt/blegpio/bin/nrf52_boot/fs/nffs/nffs.a(nffs_restore.o) (strcpy)
/Users/briangiori/dev/newt/blegpio/bin/nrf52_boot/libs/baselibc/baselibc.a(strlen.o)
                              /Users/briangiori/dev/newt/blegpio/bin/nrf52_boot/fs/nffs/nffs.a(nffs_inode.o) (strlen)
/Users/briangiori/dev/newt/blegpio/bin/nrf52_boot/libs/baselibc/baselibc.a(strncmp.o)
                              /Users/briangiori/dev/newt/blegpio/bin/nrf52_boot/fs/nffs/nffs.a(nffs_inode.o) (strncmp)
/Users/briangiori/dev/newt/blegpio/bin/nrf52_boot/libs/baselibc/baselibc.a(jrand48.o)
                              /Users/briangiori/dev/newt/blegpio/bin/nrf52_boot/libs/baselibc/baselibc.a(lrand48.o) (jrand48)
/Users/briangiori/dev/newt/blegpio/bin/nrf52_boot/libs/bootutil/bootutil.a(bootutil_misc.o)
                              /Users/briangiori/dev/newt/blegpio/bin/nrf52_boot/apps/boot/boot.a(boot.o) (bootutil_cfg_register)
/Users/briangiori/dev/newt/blegpio/bin/nrf52_boot/libs/bootutil/bootutil.a(loader.o)
                              /Users/briangiori/dev/newt/blegpio/bin/nrf52_boot/apps/boot/boot.a(boot.o) (boot_go)
/Users/briangiori/dev/newt/blegpio/bin/nrf52_boot/libs/bootutil/bootutil.a(image_validate.o)
                              /Users/briangiori/dev/newt/blegpio/bin/nrf52_boot/libs/bootutil/bootutil.a(loader.o) (bootutil_img_validate)
/Users/briangiori/dev/newt/blegpio/bin/nrf52_boot/libs/cmsis-core/cmsis-core.a(cmsis_nvic.o)
                              /Users/briangiori/dev/newt/blegpio/bin/nrf52_boot/hw/bsp/nrf52dk/nrf52dk.a(system_nrf52.o) (NVIC_Relocate)
/Users/briangiori/dev/newt/blegpio/bin/nrf52_boot/libs/mbedtls/mbedtls.a(sha256.o)
                              /Users/briangiori/dev/newt/blegpio/bin/nrf52_boot/libs/bootutil/bootutil.a(image_validate.o) (mbedtls_sha256_init)
/Users/briangiori/dev/newt/blegpio/bin/nrf52_boot/libs/os/os.a(os.o)
                              /Users/briangiori/dev/newt/blegpio/bin/nrf52_boot/apps/boot/boot.a(boot.o) (os_init)
/Users/briangiori/dev/newt/blegpio/bin/nrf52_boot/libs/os/os.a(os_arch_arm.o)
                              /Users/briangiori/dev/newt/blegpio/bin/nrf52_boot/libs/os/os.a(os.o) (os_arch_save_sr)
/Users/briangiori/dev/newt/blegpio/bin/nrf52_boot/libs/os/os.a(os_callout.o)
                              /Users/briangiori/dev/newt/blegpio/bin/nrf52_boot/libs/os/os.a(os.o) (g_callout_list)
/Users/briangiori/dev/newt/blegpio/bin/nrf52_boot/libs/os/os.a(os_eventq.o)
                              /Users/briangiori/dev/newt/blegpio/bin/nrf52_boot/libs/os/os.a(os_callout.o) (os_eventq_put)
/Users/briangiori/dev/newt/blegpio/bin/nrf52_boot/libs/os/os.a(os_fault.o)
                              /Users/briangiori/dev/newt/blegpio/bin/nrf52_boot/apps/boot/boot.a(boot.o) (__assert_func)
/Users/briangiori/dev/newt/blegpio/bin/nrf52_boot/libs/os/os.a(os_heap.o)
                              /Users/briangiori/dev/newt/blegpio/bin/nrf52_boot/fs/nffs/nffs.a(nffs.o) (os_malloc)
/Users/briangiori/dev/newt/blegpio/bin/nrf52_boot/libs/os/os.a(os_mempool.o)
                              /Users/briangiori/dev/newt/blegpio/bin/nrf52_boot/fs/nffs/nffs.a(nffs_misc.o) (os_mempool_init)
/Users/briangiori/dev/newt/blegpio/bin/nrf52_boot/libs/os/os.a(os_mutex.o)
                              /Users/briangiori/dev/newt/blegpio/bin/nrf52_boot/fs/nffs/nffs.a(nffs.o) (os_mutex_init)
/Users/briangiori/dev/newt/blegpio/bin/nrf52_boot/libs/os/os.a(os_sched.o)
                              /Users/briangiori/dev/newt/blegpio/bin/nrf52_boot/libs/os/os.a(os_arch_arm.o) (os_sched_ctx_sw_hook)
/Users/briangiori/dev/newt/blegpio/bin/nrf52_boot/libs/os/os.a(os_task.o)
                              /Users/briangiori/dev/newt/blegpio/bin/nrf52_boot/libs/os/os.a(os.o) (os_task_init)
/Users/briangiori/dev/newt/blegpio/bin/nrf52_boot/libs/os/os.a(os_time.o)
                              /Users/briangiori/dev/newt/blegpio/bin/nrf52_boot/libs/os/os.a(os.o) (os_time_get)
/Users/briangiori/dev/newt/blegpio/bin/nrf52_boot/libs/os/os.a(HAL_CM4.o)
                              /Users/briangiori/dev/newt/blegpio/bin/nrf52_boot/libs/os/os.a(os_arch_arm.o) (os_set_env)
/Users/briangiori/dev/newt/blegpio/bin/nrf52_boot/libs/os/os.a(SVC_Table.o)
                              /Users/briangiori/dev/newt/blegpio/bin/nrf52_boot/libs/os/os.a(HAL_CM4.o) (SVC_Table)
/Users/briangiori/dev/newt/blegpio/bin/nrf52_boot/libs/os/os.a(os_sanity.o)
                              /Users/briangiori/dev/newt/blegpio/bin/nrf52_boot/libs/os/os.a(os_task.o) (os_sanity_check_init)
/Users/briangiori/dev/newt/blegpio/bin/nrf52_boot/libs/util/util.a(crc16.o)
                              /Users/briangiori/dev/newt/blegpio/bin/nrf52_boot/fs/nffs/nffs.a(nffs_write.o) (crc16_ccitt)
/Users/briangiori/dev/newt/blegpio/bin/nrf52_boot/sys/config/config.a(config.o)
                              /Users/briangiori/dev/newt/blegpio/bin/nrf52_boot/apps/boot/boot.a(boot.o) (conf_init)
/Users/briangiori/dev/newt/blegpio/bin/nrf52_boot/sys/config/config.a(config_file.o)
                              /Users/briangiori/dev/newt/blegpio/bin/nrf52_boot/apps/boot/boot.a(boot.o) (conf_file_src)
/Users/briangiori/dev/newt/blegpio/bin/nrf52_boot/sys/config/config.a(config_line.o)
                              /Users/briangiori/dev/newt/blegpio/bin/nrf52_boot/sys/config/config.a(config_file.o) (conf_line_parse)
/Users/briangiori/dev/newt/blegpio/bin/nrf52_boot/sys/config/config.a(config_store.o)
                              /Users/briangiori/dev/newt/blegpio/bin/nrf52_boot/sys/config/config.a(config_file.o) (conf_src_register)
/Users/briangiori/dev/newt/blegpio/bin/nrf52_boot/sys/log/log.a(log.o)
                              /Users/briangiori/dev/newt/blegpio/bin/nrf52_boot/fs/nffs/nffs.a(nffs.o) (log_init)
/Users/briangiori/dev/newt/blegpio/bin/nrf52_boot/sys/log/log.a(log_console.o)
                              /Users/briangiori/dev/newt/blegpio/bin/nrf52_boot/fs/nffs/nffs.a(nffs.o) (log_console_handler_init)
/Users/briangiori/dev/newt/blegpio/bin/nrf52_boot/fs/fs/fs.a(fs_file.o)
                              /Users/briangiori/dev/newt/blegpio/bin/nrf52_boot/sys/config/config.a(config_file.o) (fs_open)
/Users/briangiori/dev/newt/blegpio/bin/nrf52_boot/fs/fs/fs.a(fs_mkdir.o)
                              /Users/briangiori/dev/newt/blegpio/bin/nrf52_boot/sys/config/config.a(config_file.o) (fs_rename)
/Users/briangiori/dev/newt/blegpio/bin/nrf52_boot/fs/fs/fs.a(fs_mount.o)
                              /Users/briangiori/dev/newt/blegpio/bin/nrf52_boot/fs/nffs/nffs.a(nffs.o) (fs_register)
/Users/briangiori/dev/newt/blegpio/bin/nrf52_boot/fs/fs/fs.a(fsutil.o)
                              /Users/briangiori/dev/newt/blegpio/bin/nrf52_boot/libs/bootutil/bootutil.a(bootutil_misc.o) (fsutil_read_file)
/Users/briangiori/dev/newt/blegpio/bin/nrf52_boot/hw/bsp/nrf52dk/nrf52dk.a(hal_bsp.o)
                              /Users/briangiori/dev/newt/blegpio/bin/nrf52_boot/hw/hal/hal.a(flash_map.o) (bsp_flash_dev)
/Users/briangiori/dev/newt/blegpio/bin/nrf52_boot/hw/bsp/nrf52dk/nrf52dk.a(libc_stubs.o)
                              /Users/briangiori/dev/newt/blegpio/bin/nrf52_boot/libs/baselibc/baselibc.a(inline.o) (_exit)
/Users/briangiori/dev/newt/blegpio/bin/nrf52_boot/hw/bsp/nrf52dk/nrf52dk.a(os_bsp.o)
                              /Users/briangiori/dev/newt/blegpio/bin/nrf52_boot/libs/os/os.a(os_arch_arm.o) (bsp_init)
/Users/briangiori/dev/newt/blegpio/bin/nrf52_boot/hw/bsp/nrf52dk/nrf52dk.a(sbrk.o)
                              /Users/briangiori/dev/newt/blegpio/bin/nrf52_boot/libs/baselibc/baselibc.a(malloc.o) (_sbrk)
/Users/briangiori/dev/newt/blegpio/bin/nrf52_boot/hw/mcu/nordic/nrf52xxx/nrf52xxx.a(hal_flash.o)
                              /Users/briangiori/dev/newt/blegpio/bin/nrf52_boot/hw/bsp/nrf52dk/nrf52dk.a(hal_bsp.o) (nrf52k_flash_dev)
/Users/briangiori/dev/newt/blegpio/bin/nrf52_boot/hw/mcu/nordic/nrf52xxx/nrf52xxx.a(hal_os_tick.o)
                              /Users/briangiori/dev/newt/blegpio/bin/nrf52_boot/libs/os/os.a(os.o) (os_tick_idle)
/Users/briangiori/dev/newt/blegpio/bin/nrf52_boot/hw/mcu/nordic/nrf52xxx/nrf52xxx.a(hal_system.o)
                              /Users/briangiori/dev/newt/blegpio/bin/nrf52_boot/libs/os/os.a(os_fault.o) (system_reset)
/Users/briangiori/dev/newt/blegpio/bin/nrf52_boot/libs/baselibc/baselibc.a(memcmp.o)
                              /Users/briangiori/dev/newt/blegpio/bin/nrf52_boot/libs/bootutil/bootutil.a(loader.o) (memcmp)
/Users/briangiori/dev/newt/blegpio/bin/nrf52_boot/libs/baselibc/baselibc.a(memcpy.o)
                              /Users/briangiori/dev/newt/blegpio/bin/nrf52_boot/libs/mbedtls/mbedtls.a(sha256.o) (memcpy)
/Users/briangiori/dev/newt/blegpio/bin/nrf52_boot/libs/baselibc/baselibc.a(realloc.o)
                              /Users/briangiori/dev/newt/blegpio/bin/nrf52_boot/libs/os/os.a(os_heap.o) (realloc)
/Users/briangiori/dev/newt/blegpio/bin/nrf52_boot/libs/baselibc/baselibc.a(strcmp.o)
                              /Users/briangiori/dev/newt/blegpio/bin/nrf52_boot/libs/bootutil/bootutil.a(bootutil_misc.o) (strcmp)
/Users/briangiori/dev/newt/blegpio/bin/nrf52_boot/libs/baselibc/baselibc.a(strncpy.o)
                              /Users/briangiori/dev/newt/blegpio/bin/nrf52_boot/libs/os/os.a(os_mempool.o) (strncpy)
/Users/briangiori/dev/newt/blegpio/bin/nrf52_boot/libs/baselibc/baselibc.a(strtok_r.o)
                              /Users/briangiori/dev/newt/blegpio/bin/nrf52_boot/sys/config/config.a(config.o) (strtok_r)
/Users/briangiori/dev/newt/blegpio/bin/nrf52_boot/libs/baselibc/baselibc.a(strtol.o)
                              /Users/briangiori/dev/newt/blegpio/bin/nrf52_boot/sys/config/config.a(config.o) (strtol)
/Users/briangiori/dev/newt/blegpio/bin/nrf52_boot/libs/baselibc/baselibc.a(tinyprintf.o)
                              /Users/briangiori/dev/newt/blegpio/bin/nrf52_boot/sys/log/log.a(log.o) (vsnprintf)
/Users/briangiori/dev/newt/blegpio/bin/nrf52_boot/libs/baselibc/baselibc.a(memfile.o)
                              /Users/briangiori/dev/newt/blegpio/bin/nrf52_boot/libs/baselibc/baselibc.a(tinyprintf.o) (fmemopen_w)
/Users/briangiori/dev/newt/blegpio/bin/nrf52_boot/libs/baselibc/baselibc.a(strntoumax.o)
                              /Users/briangiori/dev/newt/blegpio/bin/nrf52_boot/libs/baselibc/baselibc.a(strtol.o) (strntoumax)
/Users/briangiori/dev/newt/blegpio/bin/nrf52_boot/libs/baselibc/baselibc.a(strsep.o)
                              /Users/briangiori/dev/newt/blegpio/bin/nrf52_boot/libs/baselibc/baselibc.a(strtok_r.o) (strsep)
/Users/briangiori/dev/newt/blegpio/bin/nrf52_boot/libs/baselibc/baselibc.a(strpbrk.o)
                              /Users/briangiori/dev/newt/blegpio/bin/nrf52_boot/libs/baselibc/baselibc.a(strsep.o) (strpbrk)
/Users/briangiori/dev/newt/blegpio/bin/nrf52_boot/libs/util/util.a(base64.o)
                              /Users/briangiori/dev/newt/blegpio/bin/nrf52_boot/sys/config/config.a(config.o) (base64_encode)
/usr/local/Cellar/gcc-arm-none-eabi-49/20150609/bin/../lib/gcc/arm-none-eabi/4.9.3/armv7e-m/libgcc.a(_aeabi_uldivmod.o)
                              /Users/briangiori/dev/newt/blegpio/bin/nrf52_boot/libs/os/os.a(os_time.o) (__aeabi_uldivmod)
/usr/local/Cellar/gcc-arm-none-eabi-49/20150609/bin/../lib/gcc/arm-none-eabi/4.9.3/armv7e-m/libgcc.a(bpabi.o)
                              /usr/local/Cellar/gcc-arm-none-eabi-49/20150609/bin/../lib/gcc/arm-none-eabi/4.9.3/armv7e-m/libgcc.a(_aeabi_uldivmod.o) (__gnu_uldivmod_helper)
/usr/local/Cellar/gcc-arm-none-eabi-49/20150609/bin/../lib/gcc/arm-none-eabi/4.9.3/armv7e-m/libgcc.a(_dvmd_tls.o)
                              /usr/local/Cellar/gcc-arm-none-eabi-49/20150609/bin/../lib/gcc/arm-none-eabi/4.9.3/armv7e-m/libgcc.a(_aeabi_uldivmod.o) (__aeabi_ldiv0)
/usr/local/Cellar/gcc-arm-none-eabi-49/20150609/bin/../lib/gcc/arm-none-eabi/4.9.3/armv7e-m/libgcc.a(_divdi3.o)
                              /usr/local/Cellar/gcc-arm-none-eabi-49/20150609/bin/../lib/gcc/arm-none-eabi/4.9.3/armv7e-m/libgcc.a(bpabi.o) (__divdi3)
/usr/local/Cellar/gcc-arm-none-eabi-49/20150609/bin/../lib/gcc/arm-none-eabi/4.9.3/armv7e-m/libgcc.a(_udivdi3.o)
                              /usr/local/Cellar/gcc-arm-none-eabi-49/20150609/bin/../lib/gcc/arm-none-eabi/4.9.3/armv7e-m/libgcc.a(bpabi.o) (__udivdi3)
/usr/local/Cellar/gcc-arm-none-eabi-49/20150609/bin/../lib/gcc/arm-none-eabi/4.9.3/../../../../arm-none-eabi/lib/armv7e-m/libg.a(lib_a-errno.o)
                              /Users/briangiori/dev/newt/blegpio/bin/nrf52_boot/hw/bsp/nrf52dk/nrf52dk.a(sbrk.o) (__errno)
/usr/local/Cellar/gcc-arm-none-eabi-49/20150609/bin/../lib/gcc/arm-none-eabi/4.9.3/../../../../arm-none-eabi/lib/armv7e-m/libg.a(lib_a-impure.o)
                              /usr/local/Cellar/gcc-arm-none-eabi-49/20150609/bin/../lib/gcc/arm-none-eabi/4.9.3/../../../../arm-none-eabi/lib/armv7e-m/libg.a(lib_a-errno.o) (_impure_ptr)
/usr/local/Cellar/gcc-arm-none-eabi-49/20150609/bin/../lib/gcc/arm-none-eabi/4.9.3/../../../../arm-none-eabi/lib/armv7e-m/libg.a(lib_a-init.o)
                              /usr/local/Cellar/gcc-arm-none-eabi-49/20150609/bin/../lib/gcc/arm-none-eabi/4.9.3/../../../../arm-none-eabi/lib/armv7e-m/crt0.o (__libc_init_array)

Allocating common symbols
Common symbol       size              file

g_os_task_list      0x8               /Users/briangiori/dev/newt/blegpio/bin/nrf52_boot/libs/os/os.a(os_task.o)
__rand48_seed       0x6               /Users/briangiori/dev/newt/blegpio/bin/nrf52_boot/libs/baselibc/baselibc.a(srand48.o)
nffs_cache_inode_pool
                    0x1c              /Users/briangiori/dev/newt/blegpio/bin/nrf52_boot/fs/nffs/nffs.a(nffs.o)
nffs_scratch_area_idx
                    0x1               /Users/briangiori/dev/newt/blegpio/bin/nrf52_boot/fs/nffs/nffs.a(nffs.o)
nffs_cache_inode_mem
                    0x4               /Users/briangiori/dev/newt/blegpio/bin/nrf52_boot/fs/nffs/nffs.a(nffs.o)
g_os_sanity_num_secs
                    0x4               /Users/briangiori/dev/newt/blegpio/bin/nrf52_boot/libs/os/os.a(os_sanity.o)
nffs_dir_pool       0x1c              /Users/briangiori/dev/newt/blegpio/bin/nrf52_boot/fs/nffs/nffs.a(nffs.o)
nffs_hash_next_dir_id
                    0x4               /Users/briangiori/dev/newt/blegpio/bin/nrf52_boot/fs/nffs/nffs.a(nffs_hash.o)
nffs_hash_next_block_id
                    0x4               /Users/briangiori/dev/newt/blegpio/bin/nrf52_boot/fs/nffs/nffs.a(nffs_hash.o)
nffs_lost_found_dir
                    0x4               /Users/briangiori/dev/newt/blegpio/bin/nrf52_boot/fs/nffs/nffs.a(nffs.o)
g_callout_list      0x8               /Users/briangiori/dev/newt/blegpio/bin/nrf52_boot/libs/os/os.a(os_callout.o)
nffs_file_pool      0x1c              /Users/briangiori/dev/newt/blegpio/bin/nrf52_boot/fs/nffs/nffs.a(nffs.o)
g_current_task      0x4               /Users/briangiori/dev/newt/blegpio/bin/nrf52_boot/libs/os/os.a(os_sched.o)
g_task_id           0x1               /Users/briangiori/dev/newt/blegpio/bin/nrf52_boot/libs/os/os.a(os_task.o)
g_os_sanity_check_mu
                    0xc               /Users/briangiori/dev/newt/blegpio/bin/nrf52_boot/libs/os/os.a(os_sanity.o)
nffs_flash_buf      0x100             /Users/briangiori/dev/newt/blegpio/bin/nrf52_boot/fs/nffs/nffs.a(nffs_flash.o)
nffs_gc_count       0x4               /Users/briangiori/dev/newt/blegpio/bin/nrf52_boot/fs/nffs/nffs.a(nffs_gc.o)
nffs_cache_block_pool
                    0x1c              /Users/briangiori/dev/newt/blegpio/bin/nrf52_boot/fs/nffs/nffs.a(nffs.o)
nffs_current_area_descs
                    0x4               /Users/briangiori/dev/newt/blegpio/bin/nrf52_boot/fs/nffs/nffs.a(nffs.o)
nffs_inode_entry_pool
                    0x1c              /Users/briangiori/dev/newt/blegpio/bin/nrf52_boot/fs/nffs/nffs.a(nffs.o)
g_os_sanity_task    0x50              /Users/briangiori/dev/newt/blegpio/bin/nrf52_boot/libs/os/os.a(os_sanity.o)
g_os_time           0x4               /Users/briangiori/dev/newt/blegpio/bin/nrf52_boot/libs/os/os.a(os_time.o)
conf_save_dst       0x4               /Users/briangiori/dev/newt/blegpio/bin/nrf52_boot/sys/config/config.a(config_store.o)
g_idle_task         0x50              /Users/briangiori/dev/newt/blegpio/bin/nrf52_boot/libs/os/os.a(os.o)
g_os_last_ctx_sw_time
                    0x4               /Users/briangiori/dev/newt/blegpio/bin/nrf52_boot/libs/os/os.a(os_sched.o)
nffs_num_areas      0x1               /Users/briangiori/dev/newt/blegpio/bin/nrf52_boot/fs/nffs/nffs.a(nffs.o)
nffs_file_mem       0x4               /Users/briangiori/dev/newt/blegpio/bin/nrf52_boot/fs/nffs/nffs.a(nffs.o)
nffs_cache_block_mem
                    0x4               /Users/briangiori/dev/newt/blegpio/bin/nrf52_boot/fs/nffs/nffs.a(nffs.o)
nffs_inode_mem      0x4               /Users/briangiori/dev/newt/blegpio/bin/nrf52_boot/fs/nffs/nffs.a(nffs.o)
g_os_idle_ctr       0x4               /Users/briangiori/dev/newt/blegpio/bin/nrf52_boot/libs/os/os.a(os.o)
nffs_log            0xc               /Users/briangiori/dev/newt/blegpio/bin/nrf52_boot/fs/nffs/nffs.a(nffs.o)
boot_img_hdrs       0x40              /Users/briangiori/dev/newt/blegpio/bin/nrf52_boot/libs/bootutil/bootutil.a(loader.o)
nffs_areas          0x4               /Users/briangiori/dev/newt/blegpio/bin/nrf52_boot/fs/nffs/nffs.a(nffs.o)
nffs_block_entry_pool
                    0x1c              /Users/briangiori/dev/newt/blegpio/bin/nrf52_boot/fs/nffs/nffs.a(nffs.o)
nffs_hash           0x4               /Users/briangiori/dev/newt/blegpio/bin/nrf52_boot/fs/nffs/nffs.a(nffs_hash.o)
g_idle_task_stack   0x100             /Users/briangiori/dev/newt/blegpio/bin/nrf52_boot/libs/os/os.a(os.o)
g_hal_os_tick       0xc               /Users/briangiori/dev/newt/blegpio/bin/nrf52_boot/hw/mcu/nordic/nrf52xxx/nrf52xxx.a(hal_os_tick.o)
g_os_started        0x4               /Users/briangiori/dev/newt/blegpio/bin/nrf52_boot/libs/os/os.a(os.o)
nffs_block_max_data_sz
                    0x2               /Users/briangiori/dev/newt/blegpio/bin/nrf52_boot/fs/nffs/nffs.a(nffs.o)
g_log_info          0x10              /Users/briangiori/dev/newt/blegpio/bin/nrf52_boot/fs/nffs/nffs.a(nffs.o)
g_os_sanity_task_stack
                    0x100             /Users/briangiori/dev/newt/blegpio/bin/nrf52_boot/libs/os/os.a(os_sanity.o)
nffs_root_dir       0x4               /Users/briangiori/dev/newt/blegpio/bin/nrf52_boot/fs/nffs/nffs.a(nffs.o)
nffs_config         0x18              /Users/briangiori/dev/newt/blegpio/bin/nrf52_boot/fs/nffs/nffs.a(nffs_config.o)
nffs_hash_next_file_id
                    0x4               /Users/briangiori/dev/newt/blegpio/bin/nrf52_boot/fs/nffs/nffs.a(nffs_hash.o)
nffs_dir_mem        0x4               /Users/briangiori/dev/newt/blegpio/bin/nrf52_boot/fs/nffs/nffs.a(nffs.o)
nffs_block_entry_mem
                    0x4               /Users/briangiori/dev/newt/blegpio/bin/nrf52_boot/fs/nffs/nffs.a(nffs.o)

Discarded input sections

 .text          0x0000000000000000        0x0 /usr/local/Cellar/gcc-arm-none-eabi-49/20150609/bin/../lib/gcc/arm-none-eabi/4.9.3/armv7e-m/crti.o
 .data          0x0000000000000000        0x0 /usr/local/Cellar/gcc-arm-none-eabi-49/20150609/bin/../lib/gcc/arm-none-eabi/4.9.3/armv7e-m/crti.o
 .bss           0x0000000000000000        0x0 /usr/local/Cellar/gcc-arm-none-eabi-49/20150609/bin/../lib/gcc/arm-none-eabi/4.9.3/armv7e-m/crti.o
 .text          0x0000000000000000       0x5c /usr/local/Cellar/gcc-arm-none-eabi-49/20150609/bin/../lib/gcc/arm-none-eabi/4.9.3/armv7e-m/crtbegin.o
 .data          0x0000000000000000        0x4 /usr/local/Cellar/gcc-arm-none-eabi-49/20150609/bin/../lib/gcc/arm-none-eabi/4.9.3/armv7e-m/crtbegin.o
 .bss           0x0000000000000000       0x1c /usr/local/Cellar/gcc-arm-none-eabi-49/20150609/bin/../lib/gcc/arm-none-eabi/4.9.3/armv7e-m/crtbegin.o
 .init_array    0x0000000000000000        0x4 /usr/local/Cellar/gcc-arm-none-eabi-49/20150609/bin/../lib/gcc/arm-none-eabi/4.9.3/armv7e-m/crtbegin.o
 .fini_array    0x0000000000000000        0x4 /usr/local/Cellar/gcc-arm-none-eabi-49/20150609/bin/../lib/gcc/arm-none-eabi/4.9.3/armv7e-m/crtbegin.o
 .eh_frame      0x0000000000000000        0x0 /usr/local/Cellar/gcc-arm-none-eabi-49/20150609/bin/../lib/gcc/arm-none-eabi/4.9.3/armv7e-m/crtbegin.o
 .jcr           0x0000000000000000        0x0 /usr/local/Cellar/gcc-arm-none-eabi-49/20150609/bin/../lib/gcc/arm-none-eabi/4.9.3/armv7e-m/crtbegin.o
 .ARM.attributes
                0x0000000000000000       0x2e /usr/local/Cellar/gcc-arm-none-eabi-49/20150609/bin/../lib/gcc/arm-none-eabi/4.9.3/armv7e-m/crtbegin.o
 .data          0x0000000000000000        0x0 /usr/local/Cellar/gcc-arm-none-eabi-49/20150609/bin/../lib/gcc/arm-none-eabi/4.9.3/../../../../arm-none-eabi/lib/armv7e-m/crt0.o
 .bss           0x0000000000000000        0x0 /usr/local/Cellar/gcc-arm-none-eabi-49/20150609/bin/../lib/gcc/arm-none-eabi/4.9.3/../../../../arm-none-eabi/lib/armv7e-m/crt0.o
 .ARM.extab     0x0000000000000000        0x0 /usr/local/Cellar/gcc-arm-none-eabi-49/20150609/bin/../lib/gcc/arm-none-eabi/4.9.3/../../../../arm-none-eabi/lib/armv7e-m/crt0.o
 .text          0x0000000000000000        0x0 /Users/briangiori/dev/newt/blegpio/bin/nrf52_boot/apps/boot/boot.a(boot.o)
 .data          0x0000000000000000        0x0 /Users/briangiori/dev/newt/blegpio/bin/nrf52_boot/apps/boot/boot.a(boot.o)
 .bss           0x0000000000000000        0x0 /Users/briangiori/dev/newt/blegpio/bin/nrf52_boot/apps/boot/boot.a(boot.o)
 .text          0x0000000000000000        0x0 /Users/briangiori/dev/newt/blegpio/bin/nrf52_boot/fs/nffs/nffs.a(nffs.o)
 .data          0x0000000000000000        0x0 /Users/briangiori/dev/newt/blegpio/bin/nrf52_boot/fs/nffs/nffs.a(nffs.o)
 .bss           0x0000000000000000        0x0 /Users/briangiori/dev/newt/blegpio/bin/nrf52_boot/fs/nffs/nffs.a(nffs.o)
 .text.nffs_format
                0x0000000000000000       0x18 /Users/briangiori/dev/newt/blegpio/bin/nrf52_boot/fs/nffs/nffs.a(nffs.o)
 .text          0x0000000000000000        0x0 /Users/briangiori/dev/newt/blegpio/bin/nrf52_boot/fs/nffs/nffs.a(nffs_cache.o)
 .data          0x0000000000000000        0x0 /Users/briangiori/dev/newt/blegpio/bin/nrf52_boot/fs/nffs/nffs.a(nffs_cache.o)
 .bss           0x0000000000000000        0x0 /Users/briangiori/dev/newt/blegpio/bin/nrf52_boot/fs/nffs/nffs.a(nffs_cache.o)
 .text          0x0000000000000000        0x0 /Users/briangiori/dev/newt/blegpio/bin/nrf52_boot/fs/nffs/nffs.a(nffs_config.o)
 .data          0x0000000000000000        0x0 /Users/briangiori/dev/newt/blegpio/bin/nrf52_boot/fs/nffs/nffs.a(nffs_config.o)
 .bss           0x0000000000000000        0x0 /Users/briangiori/dev/newt/blegpio/bin/nrf52_boot/fs/nffs/nffs.a(nffs_config.o)
 .rodata.nffs_config_dflt
                0x0000000000000000       0x18 /Users/briangiori/dev/newt/blegpio/bin/nrf52_boot/fs/nffs/nffs.a(nffs_config.o)
 .text          0x0000000000000000        0x0 /Users/briangiori/dev/newt/blegpio/bin/nrf52_boot/fs/nffs/nffs.a(nffs_dir.o)
 .data          0x0000000000000000        0x0 /Users/briangiori/dev/newt/blegpio/bin/nrf52_boot/fs/nffs/nffs.a(nffs_dir.o)
 .bss           0x0000000000000000        0x0 /Users/briangiori/dev/newt/blegpio/bin/nrf52_boot/fs/nffs/nffs.a(nffs_dir.o)
 .text          0x0000000000000000        0x0 /Users/briangiori/dev/newt/blegpio/bin/nrf52_boot/fs/nffs/nffs.a(nffs_file.o)
 .data          0x0000000000000000        0x0 /Users/briangiori/dev/newt/blegpio/bin/nrf52_boot/fs/nffs/nffs.a(nffs_file.o)
 .bss           0x0000000000000000        0x0 /Users/briangiori/dev/newt/blegpio/bin/nrf52_boot/fs/nffs/nffs.a(nffs_file.o)
 .text          0x0000000000000000        0x0 /Users/briangiori/dev/newt/blegpio/bin/nrf52_boot/fs/nffs/nffs.a(nffs_flash.o)
 .data          0x0000000000000000        0x0 /Users/briangiori/dev/newt/blegpio/bin/nrf52_boot/fs/nffs/nffs.a(nffs_flash.o)
 .bss           0x0000000000000000        0x0 /Users/briangiori/dev/newt/blegpio/bin/nrf52_boot/fs/nffs/nffs.a(nffs_flash.o)
 .text          0x0000000000000000        0x0 /Users/briangiori/dev/newt/blegpio/bin/nrf52_boot/fs/nffs/nffs.a(nffs_format.o)
 .data          0x0000000000000000        0x0 /Users/briangiori/dev/newt/blegpio/bin/nrf52_boot/fs/nffs/nffs.a(nffs_format.o)
 .bss           0x0000000000000000        0x0 /Users/briangiori/dev/newt/blegpio/bin/nrf52_boot/fs/nffs/nffs.a(nffs_format.o)
 .text.nffs_format_full
                0x0000000000000000       0xf8 /Users/briangiori/dev/newt/blegpio/bin/nrf52_boot/fs/nffs/nffs.a(nffs_format.o)
 .text          0x0000000000000000        0x0 /Users/briangiori/dev/newt/blegpio/bin/nrf52_boot/fs/nffs/nffs.a(nffs_hash.o)
 .data          0x0000000000000000        0x0 /Users/briangiori/dev/newt/blegpio/bin/nrf52_boot/fs/nffs/nffs.a(nffs_hash.o)
 .bss           0x0000000000000000        0x0 /Users/briangiori/dev/newt/blegpio/bin/nrf52_boot/fs/nffs/nffs.a(nffs_hash.o)
 .text          0x0000000000000000        0x0 /Users/briangiori/dev/newt/blegpio/bin/nrf52_boot/fs/nffs/nffs.a(nffs_inode.o)
 .data          0x0000000000000000        0x0 /Users/briangiori/dev/newt/blegpio/bin/nrf52_boot/fs/nffs/nffs.a(nffs_inode.o)
 .bss           0x0000000000000000        0x0 /Users/briangiori/dev/newt/blegpio/bin/nrf52_boot/fs/nffs/nffs.a(nffs_inode.o)
 .text.nffs_inode_disk_size
                0x0000000000000000        0x6 /Users/briangiori/dev/newt/blegpio/bin/nrf52_boot/fs/nffs/nffs.a(nffs_inode.o)
 .text.nffs_inode_seek
                0x0000000000000000       0xa4 /Users/briangiori/dev/newt/blegpio/bin/nrf52_boot/fs/nffs/nffs.a(nffs_inode.o)
 .text          0x0000000000000000        0x0 /Users/briangiori/dev/newt/blegpio/bin/nrf52_boot/fs/nffs/nffs.a(nffs_misc.o)
 .data          0x0000000000000000        0x0 /Users/briangiori/dev/newt/blegpio/bin/nrf52_boot/fs/nffs/nffs.a(nffs_misc.o)
 .bss           0x0000000000000000        0x0 /Users/briangiori/dev/newt/blegpio/bin/nrf52_boot/fs/nffs/nffs.a(nffs_misc.o)
 .text          0x0000000000000000        0x0 /Users/briangiori/dev/newt/blegpio/bin/nrf52_boot/fs/nffs/nffs.a(nffs_path.o)
 .data          0x0000000000000000        0x0 /Users/briangiori/dev/newt/blegpio/bin/nrf52_boot/fs/nffs/nffs.a(nffs_path.o)
 .bss           0x0000000000000000        0x0 /Users/briangiori/dev/newt/blegpio/bin/nrf52_boot/fs/nffs/nffs.a(nffs_path.o)
 .text          0x0000000000000000        0x0 /Users/briangiori/dev/newt/blegpio/bin/nrf52_boot/fs/nffs/nffs.a(nffs_restore.o)
 .data          0x0000000000000000        0x0 /Users/briangiori/dev/newt/blegpio/bin/nrf52_boot/fs/nffs/nffs.a(nffs_restore.o)
 .bss           0x0000000000000000        0x0 /Users/briangiori/dev/newt/blegpio/bin/nrf52_boot/fs/nffs/nffs.a(nffs_restore.o)
 .text          0x0000000000000000        0x0 /Users/briangiori/dev/newt/blegpio/bin/nrf52_boot/fs/nffs/nffs.a(nffs_write.o)
 .data          0x0000000000000000        0x0 /Users/briangiori/dev/newt/blegpio/bin/nrf52_boot/fs/nffs/nffs.a(nffs_write.o)
 .bss           0x0000000000000000        0x0 /Users/briangiori/dev/newt/blegpio/bin/nrf52_boot/fs/nffs/nffs.a(nffs_write.o)
 .text          0x0000000000000000        0x0 /Users/briangiori/dev/newt/blegpio/bin/nrf52_boot/fs/nffs/nffs.a(nffs_area.o)
 .data          0x0000000000000000        0x0 /Users/briangiori/dev/newt/blegpio/bin/nrf52_boot/fs/nffs/nffs.a(nffs_area.o)
 .bss           0x0000000000000000        0x0 /Users/briangiori/dev/newt/blegpio/bin/nrf52_boot/fs/nffs/nffs.a(nffs_area.o)
 .text          0x0000000000000000        0x0 /Users/briangiori/dev/newt/blegpio/bin/nrf52_boot/fs/nffs/nffs.a(nffs_block.o)
 .data          0x0000000000000000        0x0 /Users/briangiori/dev/newt/blegpio/bin/nrf52_boot/fs/nffs/nffs.a(nffs_block.o)
 .bss           0x0000000000000000        0x0 /Users/briangiori/dev/newt/blegpio/bin/nrf52_boot/fs/nffs/nffs.a(nffs_block.o)
 .text.nffs_block_find_predecessor
                0x0000000000000000       0x3e /Users/briangiori/dev/newt/blegpio/bin/nrf52_boot/fs/nffs/nffs.a(nffs_block.o)
 .text          0x0000000000000000        0x0 /Users/briangiori/dev/newt/blegpio/bin/nrf52_boot/fs/nffs/nffs.a(nffs_crc.o)
 .data          0x0000000000000000        0x0 /Users/briangiori/dev/newt/blegpio/bin/nrf52_boot/fs/nffs/nffs.a(nffs_crc.o)
 .bss           0x0000000000000000        0x0 /Users/briangiori/dev/newt/blegpio/bin/nrf52_boot/fs/nffs/nffs.a(nffs_crc.o)
 .text          0x0000000000000000        0x0 /Users/briangiori/dev/newt/blegpio/bin/nrf52_boot/fs/nffs/nffs.a(nffs_gc.o)
 .data          0x0000000000000000        0x0 /Users/briangiori/dev/newt/blegpio/bin/nrf52_boot/fs/nffs/nffs.a(nffs_gc.o)
 .bss           0x0000000000000000        0x0 /Users/briangiori/dev/newt/blegpio/bin/nrf52_boot/fs/nffs/nffs.a(nffs_gc.o)
 .data          0x0000000000000000        0x0 /Users/briangiori/dev/newt/blegpio/bin/nrf52_boot/hw/bsp/nrf52dk/nrf52dk.a(gcc_startup_nrf52.o)
 .bss           0x0000000000000000        0x0 /Users/briangiori/dev/newt/blegpio/bin/nrf52_boot/hw/bsp/nrf52dk/nrf52dk.a(gcc_startup_nrf52.o)
 .ARM.extab     0x0000000000000000        0x0 /Users/briangiori/dev/newt/blegpio/bin/nrf52_boot/hw/bsp/nrf52dk/nrf52dk.a(gcc_startup_nrf52.o)
 .text          0x0000000000000000        0x0 /Users/briangiori/dev/newt/blegpio/bin/nrf52_boot/hw/bsp/nrf52dk/nrf52dk.a(system_nrf52.o)
 .data          0x0000000000000000        0x0 /Users/briangiori/dev/newt/blegpio/bin/nrf52_boot/hw/bsp/nrf52dk/nrf52dk.a(system_nrf52.o)
 .bss           0x0000000000000000        0x0 /Users/briangiori/dev/newt/blegpio/bin/nrf52_boot/hw/bsp/nrf52dk/nrf52dk.a(system_nrf52.o)
 .text.SystemCoreClockUpdate
                0x0000000000000000       0x10 /Users/briangiori/dev/newt/blegpio/bin/nrf52_boot/hw/bsp/nrf52dk/nrf52dk.a(system_nrf52.o)
 .text          0x0000000000000000        0x0 /Users/briangiori/dev/newt/blegpio/bin/nrf52_boot/hw/hal/hal.a(flash_map.o)
 .data          0x0000000000000000        0x0 /Users/briangiori/dev/newt/blegpio/bin/nrf52_boot/hw/hal/hal.a(flash_map.o)
 .bss           0x0000000000000000        0x0 /Users/briangiori/dev/newt/blegpio/bin/nrf52_boot/hw/hal/hal.a(flash_map.o)
 .text.flash_area_open
                0x0000000000000000       0x28 /Users/briangiori/dev/newt/blegpio/bin/nrf52_boot/hw/hal/hal.a(flash_map.o)
 .text.flash_area_close
                0x0000000000000000        0x2 /Users/briangiori/dev/newt/blegpio/bin/nrf52_boot/hw/hal/hal.a(flash_map.o)
 .text.flash_area_read
                0x0000000000000000       0x24 /Users/briangiori/dev/newt/blegpio/bin/nrf52_boot/hw/hal/hal.a(flash_map.o)
 .text.flash_area_write
                0x0000000000000000       0x24 /Users/briangiori/dev/newt/blegpio/bin/nrf52_boot/hw/hal/hal.a(flash_map.o)
 .text.flash_area_erase
                0x0000000000000000       0x24 /Users/briangiori/dev/newt/blegpio/bin/nrf52_boot/hw/hal/hal.a(flash_map.o)
 .text.flash_area_align
                0x0000000000000000        0x6 /Users/briangiori/dev/newt/blegpio/bin/nrf52_boot/hw/hal/hal.a(flash_map.o)
 .text          0x0000000000000000        0x0 /Users/briangiori/dev/newt/blegpio/bin/nrf52_boot/hw/hal/hal.a(hal_flash.o)
 .data          0x0000000000000000        0x0 /Users/briangiori/dev/newt/blegpio/bin/nrf52_boot/hw/hal/hal.a(hal_flash.o)
 .bss           0x0000000000000000        0x0 /Users/briangiori/dev/newt/blegpio/bin/nrf52_boot/hw/hal/hal.a(hal_flash.o)
 .text.hal_flash_align
                0x0000000000000000       0x10 /Users/briangiori/dev/newt/blegpio/bin/nrf52_boot/hw/hal/hal.a(hal_flash.o)
 .text.hal_flash_sector_size
                0x0000000000000000       0x1c /Users/briangiori/dev/newt/blegpio/bin/nrf52_boot/hw/hal/hal.a(hal_flash.o)
 .text.hal_flash_erase_sector
                0x0000000000000000       0x26 /Users/briangiori/dev/newt/blegpio/bin/nrf52_boot/hw/hal/hal.a(hal_flash.o)
 .text          0x0000000000000000        0x0 /Users/briangiori/dev/newt/blegpio/bin/nrf52_boot/hw/mcu/nordic/nrf52xxx/nrf52xxx.a(hal_system_start.o)
 .data          0x0000000000000000        0x0 /Users/briangiori/dev/newt/blegpio/bin/nrf52_boot/hw/mcu/nordic/nrf52xxx/nrf52xxx.a(hal_system_start.o)
 .bss           0x0000000000000000        0x0 /Users/briangiori/dev/newt/blegpio/bin/nrf52_boot/hw/mcu/nordic/nrf52xxx/nrf52xxx.a(hal_system_start.o)
 .text          0x0000000000000000        0x0 /Users/briangiori/dev/newt/blegpio/bin/nrf52_boot/libs/baselibc/baselibc.a(inline.o)
 .data          0x0000000000000000        0x0 /Users/briangiori/dev/newt/blegpio/bin/nrf52_boot/libs/baselibc/baselibc.a(inline.o)
 .bss           0x0000000000000000        0x0 /Users/briangiori/dev/newt/blegpio/bin/nrf52_boot/libs/baselibc/baselibc.a(inline.o)
 .text.abs      0x0000000000000000        0x8 /Users/briangiori/dev/newt/blegpio/bin/nrf52_boot/libs/baselibc/baselibc.a(inline.o)
 .text.labs     0x0000000000000000        0x8 /Users/briangiori/dev/newt/blegpio/bin/nrf52_boot/libs/baselibc/baselibc.a(inline.o)
 .text.llabs    0x0000000000000000       0x10 /Users/briangiori/dev/newt/blegpio/bin/nrf52_boot/libs/baselibc/baselibc.a(inline.o)
 .text.getenv   0x0000000000000000        0x4 /Users/briangiori/dev/newt/blegpio/bin/nrf52_boot/libs/baselibc/baselibc.a(inline.o)
 .text.rand     0x0000000000000000        0x4 /Users/briangiori/dev/newt/blegpio/bin/nrf52_boot/libs/baselibc/baselibc.a(inline.o)
 .text.srand    0x0000000000000000        0x4 /Users/briangiori/dev/newt/blegpio/bin/nrf52_boot/libs/baselibc/baselibc.a(inline.o)
 .text.random   0x0000000000000000        0x4 /Users/briangiori/dev/newt/blegpio/bin/nrf52_boot/libs/baselibc/baselibc.a(inline.o)
 .text.srandom  0x0000000000000000        0x4 /Users/briangiori/dev/newt/blegpio/bin/nrf52_boot/libs/baselibc/baselibc.a(inline.o)
 .text.fread    0x0000000000000000       0x1e /Users/briangiori/dev/newt/blegpio/bin/nrf52_boot/libs/baselibc/baselibc.a(inline.o)
 .text.fwrite   0x0000000000000000       0x1e /Users/briangiori/dev/newt/blegpio/bin/nrf52_boot/libs/baselibc/baselibc.a(inline.o)
 .text.fputs    0x0000000000000000       0x1a /Users/briangiori/dev/newt/blegpio/bin/nrf52_boot/libs/baselibc/baselibc.a(inline.o)
 .text.puts     0x0000000000000000       0x34 /Users/briangiori/dev/newt/blegpio/bin/nrf52_boot/libs/baselibc/baselibc.a(inline.o)
 .text.fputc    0x0000000000000000       0x26 /Users/briangiori/dev/newt/blegpio/bin/nrf52_boot/libs/baselibc/baselibc.a(inline.o)
 .text.fgetc    0x0000000000000000       0x22 /Users/briangiori/dev/newt/blegpio/bin/nrf52_boot/libs/baselibc/baselibc.a(inline.o)
 .text.strerror
                0x0000000000000000        0x8 /Users/briangiori/dev/newt/blegpio/bin/nrf52_boot/libs/baselibc/baselibc.a(inline.o)
 .text.fflush   0x0000000000000000        0x4 /Users/briangiori/dev/newt/blegpio/bin/nrf52_boot/libs/baselibc/baselibc.a(inline.o)
 .text.isupper  0x0000000000000000        0xc /Users/briangiori/dev/newt/blegpio/bin/nrf52_boot/libs/baselibc/baselibc.a(inline.o)
 .text.islower  0x0000000000000000        0xc /Users/briangiori/dev/newt/blegpio/bin/nrf52_boot/libs/baselibc/baselibc.a(inline.o)
 .text.isalpha  0x0000000000000000       0x10 /Users/briangiori/dev/newt/blegpio/bin/nrf52_boot/libs/baselibc/baselibc.a(inline.o)
 .text.isdigit  0x0000000000000000        0xc /Users/briangiori/dev/newt/blegpio/bin/nrf52_boot/libs/baselibc/baselibc.a(inline.o)
 .text.isalnum  0x0000000000000000       0x1c /Users/briangiori/dev/newt/blegpio/bin/nrf52_boot/libs/baselibc/baselibc.a(inline.o)
 .text.isascii  0x0000000000000000        0xc /Users/briangiori/dev/newt/blegpio/bin/nrf52_boot/libs/baselibc/baselibc.a(inline.o)
 .text.isblank  0x0000000000000000       0x12 /Users/briangiori/dev/newt/blegpio/bin/nrf52_boot/libs/baselibc/baselibc.a(inline.o)
 .text.iscntrl  0x0000000000000000        0xa /Users/briangiori/dev/newt/blegpio/bin/nrf52_boot/libs/baselibc/baselibc.a(inline.o)
 .text.isspace  0x0000000000000000       0x1a /Users/briangiori/dev/newt/blegpio/bin/nrf52_boot/libs/baselibc/baselibc.a(inline.o)
 .text.isxdigit
                0x0000000000000000       0x1c /Users/briangiori/dev/newt/blegpio/bin/nrf52_boot/libs/baselibc/baselibc.a(inline.o)
 .text.ispunct  0x0000000000000000       0x28 /Users/briangiori/dev/newt/blegpio/bin/nrf52_boot/libs/baselibc/baselibc.a(inline.o)
 .text.isprint  0x0000000000000000        0xc /Users/briangiori/dev/newt/blegpio/bin/nrf52_boot/libs/baselibc/baselibc.a(inline.o)
 .text.toupper  0x0000000000000000        0xe /Users/briangiori/dev/newt/blegpio/bin/nrf52_boot/libs/baselibc/baselibc.a(inline.o)
 .text.tolower  0x0000000000000000        0xe /Users/briangiori/dev/newt/blegpio/bin/nrf52_boot/libs/baselibc/baselibc.a(inline.o)
 .rodata.str1.1
                0x0000000000000000        0xc /Users/briangiori/dev/newt/blegpio/bin/nrf52_boot/libs/baselibc/baselibc.a(inline.o)
 .text          0x0000000000000000        0x0 /Users/briangiori/dev/newt/blegpio/bin/nrf52_boot/libs/baselibc/baselibc.a(lrand48.o)
 .data          0x0000000000000000        0x0 /Users/briangiori/dev/newt/blegpio/bin/nrf52_boot/libs/baselibc/baselibc.a(lrand48.o)
 .bss           0x0000000000000000        0x0 /Users/briangiori/dev/newt/blegpio/bin/nrf52_boot/libs/baselibc/baselibc.a(lrand48.o)
 .text.lrand48  0x0000000000000000       0x10 /Users/briangiori/dev/newt/blegpio/bin/nrf52_boot/libs/baselibc/baselibc.a(lrand48.o)
 .debug_info    0x0000000000000000       0xe9 /Users/briangiori/dev/newt/blegpio/bin/nrf52_boot/libs/baselibc/baselibc.a(lrand48.o)
 .debug_abbrev  0x0000000000000000       0xa6 /Users/briangiori/dev/newt/blegpio/bin/nrf52_boot/libs/baselibc/baselibc.a(lrand48.o)
 .debug_aranges
                0x0000000000000000       0x20 /Users/briangiori/dev/newt/blegpio/bin/nrf52_boot/libs/baselibc/baselibc.a(lrand48.o)
 .debug_ranges  0x0000000000000000       0x10 /Users/briangiori/dev/newt/blegpio/bin/nrf52_boot/libs/baselibc/baselibc.a(lrand48.o)
 .debug_line    0x0000000000000000      0x153 /Users/briangiori/dev/newt/blegpio/bin/nrf52_boot/libs/baselibc/baselibc.a(lrand48.o)
 .debug_str     0x0000000000000000      0x1ce /Users/briangiori/dev/newt/blegpio/bin/nrf52_boot/libs/baselibc/baselibc.a(lrand48.o)
 .comment       0x0000000000000000       0x71 /Users/briangiori/dev/newt/blegpio/bin/nrf52_boot/libs/baselibc/baselibc.a(lrand48.o)
 .debug_frame   0x0000000000000000       0x28 /Users/briangiori/dev/newt/blegpio/bin/nrf52_boot/libs/baselibc/baselibc.a(lrand48.o)
 .ARM.attributes
                0x0000000000000000       0x33 /Users/briangiori/dev/newt/blegpio/bin/nrf52_boot/libs/baselibc/baselibc.a(lrand48.o)
 .text          0x0000000000000000        0x0 /Users/briangiori/dev/newt/blegpio/bin/nrf52_boot/libs/baselibc/baselibc.a(malloc.o)
 .data          0x0000000000000000        0x0 /Users/briangiori/dev/newt/blegpio/bin/nrf52_boot/libs/baselibc/baselibc.a(malloc.o)
 .bss           0x0000000000000000        0x0 /Users/briangiori/dev/newt/blegpio/bin/nrf52_boot/libs/baselibc/baselibc.a(malloc.o)
 .text.get_malloc_memory_status
                0x0000000000000000       0x4c /Users/briangiori/dev/newt/blegpio/bin/nrf52_boot/libs/baselibc/baselibc.a(malloc.o)
 .text.set_malloc_locking
                0x0000000000000000       0x2c /Users/briangiori/dev/newt/blegpio/bin/nrf52_boot/libs/baselibc/baselibc.a(malloc.o)
 .text          0x0000000000000000        0x0 /Users/briangiori/dev/newt/blegpio/bin/nrf52_boot/libs/baselibc/baselibc.a(memset.o)
 .data          0x0000000000000000        0x0 /Users/briangiori/dev/newt/blegpio/bin/nrf52_boot/libs/baselibc/baselibc.a(memset.o)
 .bss           0x0000000000000000        0x0 /Users/briangiori/dev/newt/blegpio/bin/nrf52_boot/libs/baselibc/baselibc.a(memset.o)
 .text          0x0000000000000000        0x0 /Users/briangiori/dev/newt/blegpio/bin/nrf52_boot/libs/baselibc/baselibc.a(mynewt.o)
 .data          0x0000000000000000        0x0 /Users/briangiori/dev/newt/blegpio/bin/nrf52_boot/libs/baselibc/baselibc.a(mynewt.o)
 .bss           0x0000000000000000        0x0 /Users/briangiori/dev/newt/blegpio/bin/nrf52_boot/libs/baselibc/baselibc.a(mynewt.o)
 .text.stdin_read
                0x0000000000000000        0x4 /Users/briangiori/dev/newt/blegpio/bin/nrf52_boot/libs/baselibc/baselibc.a(mynewt.o)
 .text.stdout_write
                0x0000000000000000        0x4 /Users/briangiori/dev/newt/blegpio/bin/nrf52_boot/libs/baselibc/baselibc.a(mynewt.o)
 .rodata.stderr
                0x0000000000000000        0x4 /Users/briangiori/dev/newt/blegpio/bin/nrf52_boot/libs/baselibc/baselibc.a(mynewt.o)
 .data._stdin_methods
                0x0000000000000000        0x8 /Users/briangiori/dev/newt/blegpio/bin/nrf52_boot/libs/baselibc/baselibc.a(mynewt.o)
 .rodata.stdin  0x0000000000000000        0x4 /Users/briangiori/dev/newt/blegpio/bin/nrf52_boot/libs/baselibc/baselibc.a(mynewt.o)
 .data._stdin   0x0000000000000000        0x4 /Users/briangiori/dev/newt/blegpio/bin/nrf52_boot/libs/baselibc/baselibc.a(mynewt.o)
 .rodata.stdout
                0x0000000000000000        0x4 /Users/briangiori/dev/newt/blegpio/bin/nrf52_boot/libs/baselibc/baselibc.a(mynewt.o)
 .debug_info    0x0000000000000000      0x1f0 /Users/briangiori/dev/newt/blegpio/bin/nrf52_boot/libs/baselibc/baselibc.a(mynewt.o)
 .debug_abbrev  0x0000000000000000       0xfc /Users/briangiori/dev/newt/blegpio/bin/nrf52_boot/libs/baselibc/baselibc.a(mynewt.o)
 .debug_loc     0x0000000000000000       0x42 /Users/briangiori/dev/newt/blegpio/bin/nrf52_boot/libs/baselibc/baselibc.a(mynewt.o)
 .debug_aranges
                0x0000000000000000       0x28 /Users/briangiori/dev/newt/blegpio/bin/nrf52_boot/libs/baselibc/baselibc.a(mynewt.o)
 .debug_ranges  0x0000000000000000       0x18 /Users/briangiori/dev/newt/blegpio/bin/nrf52_boot/libs/baselibc/baselibc.a(mynewt.o)
 .debug_line    0x0000000000000000      0x173 /Users/briangiori/dev/newt/blegpio/bin/nrf52_boot/libs/baselibc/baselibc.a(mynewt.o)
 .debug_str     0x0000000000000000      0x193 /Users/briangiori/dev/newt/blegpio/bin/nrf52_boot/libs/baselibc/baselibc.a(mynewt.o)
 .comment       0x0000000000000000       0x71 /Users/briangiori/dev/newt/blegpio/bin/nrf52_boot/libs/baselibc/baselibc.a(mynewt.o)
 .debug_frame   0x0000000000000000       0x30 /Users/briangiori/dev/newt/blegpio/bin/nrf52_boot/libs/baselibc/baselibc.a(mynewt.o)
 .ARM.attributes
                0x0000000000000000       0x33 /Users/briangiori/dev/newt/blegpio/bin/nrf52_boot/libs/baselibc/baselibc.a(mynewt.o)
 .text          0x0000000000000000        0x0 /Users/briangiori/dev/newt/blegpio/bin/nrf52_boot/libs/baselibc/baselibc.a(srand48.o)
 .data          0x0000000000000000        0x0 /Users/briangiori/dev/newt/blegpio/bin/nrf52_boot/libs/baselibc/baselibc.a(srand48.o)
 .bss           0x0000000000000000        0x0 /Users/briangiori/dev/newt/blegpio/bin/nrf52_boot/libs/baselibc/baselibc.a(srand48.o)
 .text.srand48  0x0000000000000000       0x14 /Users/briangiori/dev/newt/blegpio/bin/nrf52_boot/libs/baselibc/baselibc.a(srand48.o)
 .debug_info    0x0000000000000000       0xd6 /Users/briangiori/dev/newt/blegpio/bin/nrf52_boot/libs/baselibc/baselibc.a(srand48.o)
 .debug_abbrev  0x0000000000000000       0x83 /Users/briangiori/dev/newt/blegpio/bin/nrf52_boot/libs/baselibc/baselibc.a(srand48.o)
 .debug_loc     0x0000000000000000       0x21 /Users/briangiori/dev/newt/blegpio/bin/nrf52_boot/libs/baselibc/baselibc.a(srand48.o)
 .debug_aranges
                0x0000000000000000       0x20 /Users/briangiori/dev/newt/blegpio/bin/nrf52_boot/libs/baselibc/baselibc.a(srand48.o)
 .debug_ranges  0x0000000000000000       0x10 /Users/briangiori/dev/newt/blegpio/bin/nrf52_boot/libs/baselibc/baselibc.a(srand48.o)
 .debug_line    0x0000000000000000       0xf7 /Users/briangiori/dev/newt/blegpio/bin/nrf52_boot/libs/baselibc/baselibc.a(srand48.o)
 .debug_str     0x0000000000000000      0x1ce /Users/briangiori/dev/newt/blegpio/bin/nrf52_boot/libs/baselibc/baselibc.a(srand48.o)
 .comment       0x0000000000000000       0x71 /Users/briangiori/dev/newt/blegpio/bin/nrf52_boot/libs/baselibc/baselibc.a(srand48.o)
 .debug_frame   0x0000000000000000       0x20 /Users/briangiori/dev/newt/blegpio/bin/nrf52_boot/libs/baselibc/baselibc.a(srand48.o)
 .ARM.attributes
                0x0000000000000000       0x33 /Users/briangiori/dev/newt/blegpio/bin/nrf52_boot/libs/baselibc/baselibc.a(srand48.o)
 COMMON         0x0000000000000000        0x6 /Users/briangiori/dev/newt/blegpio/bin/nrf52_boot/libs/baselibc/baselibc.a(srand48.o)
 .text          0x0000000000000000        0x0 /Users/briangiori/dev/newt/blegpio/bin/nrf52_boot/libs/baselibc/baselibc.a(strchr.o)
 .data          0x0000000000000000        0x0 /Users/briangiori/dev/newt/blegpio/bin/nrf52_boot/libs/baselibc/baselibc.a(strchr.o)
 .bss           0x0000000000000000        0x0 /Users/briangiori/dev/newt/blegpio/bin/nrf52_boot/libs/baselibc/baselibc.a(strchr.o)
 .text          0x0000000000000000        0x0 /Users/briangiori/dev/newt/blegpio/bin/nrf52_boot/libs/baselibc/baselibc.a(strcpy.o)
 .data          0x0000000000000000        0x0 /Users/briangiori/dev/newt/blegpio/bin/nrf52_boot/libs/baselibc/baselibc.a(strcpy.o)
 .bss           0x0000000000000000        0x0 /Users/briangiori/dev/newt/blegpio/bin/nrf52_boot/libs/baselibc/baselibc.a(strcpy.o)
 .text          0x0000000000000000        0x0 /Users/briangiori/dev/newt/blegpio/bin/nrf52_boot/libs/baselibc/baselibc.a(strlen.o)
 .data          0x0000000000000000        0x0 /Users/briangiori/dev/newt/blegpio/bin/nrf52_boot/libs/baselibc/baselibc.a(strlen.o)
 .bss           0x0000000000000000        0x0 /Users/briangiori/dev/newt/blegpio/bin/nrf52_boot/libs/baselibc/baselibc.a(strlen.o)
 .text          0x0000000000000000        0x0 /Users/briangiori/dev/newt/blegpio/bin/nrf52_boot/libs/baselibc/baselibc.a(strncmp.o)
 .data          0x0000000000000000        0x0 /Users/briangiori/dev/newt/blegpio/bin/nrf52_boot/libs/baselibc/baselibc.a(strncmp.o)
 .bss           0x0000000000000000        0x0 /Users/briangiori/dev/newt/blegpio/bin/nrf52_boot/libs/baselibc/baselibc.a(strncmp.o)
 .text          0x0000000000000000        0x0 /Users/briangiori/dev/newt/blegpio/bin/nrf52_boot/libs/baselibc/baselibc.a(jrand48.o)
 .data          0x0000000000000000        0x0 /Users/briangiori/dev/newt/blegpio/bin/nrf52_boot/libs/baselibc/baselibc.a(jrand48.o)
 .bss           0x0000000000000000        0x0 /Users/briangiori/dev/newt/blegpio/bin/nrf52_boot/libs/baselibc/baselibc.a(jrand48.o)
 .text.jrand48  0x0000000000000000       0x48 /Users/briangiori/dev/newt/blegpio/bin/nrf52_boot/libs/baselibc/baselibc.a(jrand48.o)
 .debug_info    0x0000000000000000       0xf1 /Users/briangiori/dev/newt/blegpio/bin/nrf52_boot/libs/baselibc/baselibc.a(jrand48.o)
 .debug_abbrev  0x0000000000000000       0x7a /Users/briangiori/dev/newt/blegpio/bin/nrf52_boot/libs/baselibc/baselibc.a(jrand48.o)
 .debug_loc     0x0000000000000000       0x92 /Users/briangiori/dev/newt/blegpio/bin/nrf52_boot/libs/baselibc/baselibc.a(jrand48.o)
 .debug_aranges
                0x0000000000000000       0x20 /Users/briangiori/dev/newt/blegpio/bin/nrf52_boot/libs/baselibc/baselibc.a(jrand48.o)
 .debug_ranges  0x0000000000000000       0x10 /Users/briangiori/dev/newt/blegpio/bin/nrf52_boot/libs/baselibc/baselibc.a(jrand48.o)
 .debug_line    0x0000000000000000      0x104 /Users/briangiori/dev/newt/blegpio/bin/nrf52_boot/libs/baselibc/baselibc.a(jrand48.o)
 .debug_str     0x0000000000000000      0x1db /Users/briangiori/dev/newt/blegpio/bin/nrf52_boot/libs/baselibc/baselibc.a(jrand48.o)
 .comment       0x0000000000000000       0x71 /Users/briangiori/dev/newt/blegpio/bin/nrf52_boot/libs/baselibc/baselibc.a(jrand48.o)
 .debug_frame   0x0000000000000000       0x2c /Users/briangiori/dev/newt/blegpio/bin/nrf52_boot/libs/baselibc/baselibc.a(jrand48.o)
 .ARM.attributes
                0x0000000000000000       0x33 /Users/briangiori/dev/newt/blegpio/bin/nrf52_boot/libs/baselibc/baselibc.a(jrand48.o)
 .text          0x0000000000000000        0x0 /Users/briangiori/dev/newt/blegpio/bin/nrf52_boot/libs/bootutil/bootutil.a(bootutil_misc.o)
 .data          0x0000000000000000        0x0 /Users/briangiori/dev/newt/blegpio/bin/nrf52_boot/libs/bootutil/bootutil.a(bootutil_misc.o)
 .bss           0x0000000000000000        0x0 /Users/briangiori/dev/newt/blegpio/bin/nrf52_boot/libs/bootutil/bootutil.a(bootutil_misc.o)
 .text          0x0000000000000000        0x0 /Users/briangiori/dev/newt/blegpio/bin/nrf52_boot/libs/bootutil/bootutil.a(loader.o)
 .data          0x0000000000000000        0x0 /Users/briangiori/dev/newt/blegpio/bin/nrf52_boot/libs/bootutil/bootutil.a(loader.o)
 .bss           0x0000000000000000        0x0 /Users/briangiori/dev/newt/blegpio/bin/nrf52_boot/libs/bootutil/bootutil.a(loader.o)
 .text          0x0000000000000000        0x0 /Users/briangiori/dev/newt/blegpio/bin/nrf52_boot/libs/bootutil/bootutil.a(image_validate.o)
 .data          0x0000000000000000        0x0 /Users/briangiori/dev/newt/blegpio/bin/nrf52_boot/libs/bootutil/bootutil.a(image_validate.o)
 .bss           0x0000000000000000        0x0 /Users/briangiori/dev/newt/blegpio/bin/nrf52_boot/libs/bootutil/bootutil.a(image_validate.o)
 .text          0x0000000000000000        0x0 /Users/briangiori/dev/newt/blegpio/bin/nrf52_boot/libs/cmsis-core/cmsis-core.a(cmsis_nvic.o)
 .data          0x0000000000000000        0x0 /Users/briangiori/dev/newt/blegpio/bin/nrf52_boot/libs/cmsis-core/cmsis-core.a(cmsis_nvic.o)
 .bss           0x0000000000000000        0x0 /Users/briangiori/dev/newt/blegpio/bin/nrf52_boot/libs/cmsis-core/cmsis-core.a(cmsis_nvic.o)
 .text.NVIC_GetVector
                0x0000000000000000       0x10 /Users/briangiori/dev/newt/blegpio/bin/nrf52_boot/libs/cmsis-core/cmsis-core.a(cmsis_nvic.o)
 .text          0x0000000000000000        0x0 /Users/briangiori/dev/newt/blegpio/bin/nrf52_boot/libs/mbedtls/mbedtls.a(sha256.o)
 .data          0x0000000000000000        0x0 /Users/briangiori/dev/newt/blegpio/bin/nrf52_boot/libs/mbedtls/mbedtls.a(sha256.o)
 .bss           0x0000000000000000        0x0 /Users/briangiori/dev/newt/blegpio/bin/nrf52_boot/libs/mbedtls/mbedtls.a(sha256.o)
 .text.mbedtls_sha256_free
                0x0000000000000000       0x14 /Users/briangiori/dev/newt/blegpio/bin/nrf52_boot/libs/mbedtls/mbedtls.a(sha256.o)
 .text.mbedtls_sha256_clone
                0x0000000000000000        0xa /Users/briangiori/dev/newt/blegpio/bin/nrf52_boot/libs/mbedtls/mbedtls.a(sha256.o)
 .text.mbedtls_sha256
                0x0000000000000000       0x36 /Users/briangiori/dev/newt/blegpio/bin/nrf52_boot/libs/mbedtls/mbedtls.a(sha256.o)
 .text          0x0000000000000000        0x0 /Users/briangiori/dev/newt/blegpio/bin/nrf52_boot/libs/os/os.a(os.o)
 .data          0x0000000000000000        0x0 /Users/briangiori/dev/newt/blegpio/bin/nrf52_boot/libs/os/os.a(os.o)
 .bss           0x0000000000000000        0x0 /Users/briangiori/dev/newt/blegpio/bin/nrf52_boot/libs/os/os.a(os.o)
 .text.os_started
                0x0000000000000000        0xc /Users/briangiori/dev/newt/blegpio/bin/nrf52_boot/libs/os/os.a(os.o)
 .text.os_start
                0x0000000000000000       0x1c /Users/briangiori/dev/newt/blegpio/bin/nrf52_boot/libs/os/os.a(os.o)
 .text          0x0000000000000000        0x0 /Users/briangiori/dev/newt/blegpio/bin/nrf52_boot/libs/os/os.a(os_arch_arm.o)
 .data          0x0000000000000000        0x0 /Users/briangiori/dev/newt/blegpio/bin/nrf52_boot/libs/os/os.a(os_arch_arm.o)
 .bss           0x0000000000000000        0x0 /Users/briangiori/dev/newt/blegpio/bin/nrf52_boot/libs/os/os.a(os_arch_arm.o)
 .text.os_arch_start
                0x0000000000000000       0x30 /Users/briangiori/dev/newt/blegpio/bin/nrf52_boot/libs/os/os.a(os_arch_arm.o)
 .text.os_arch_os_start
                0x0000000000000000       0x48 /Users/briangiori/dev/newt/blegpio/bin/nrf52_boot/libs/os/os.a(os_arch_arm.o)
 .text          0x0000000000000000        0x0 /Users/briangiori/dev/newt/blegpio/bin/nrf52_boot/libs/os/os.a(os_callout.o)
 .data          0x0000000000000000        0x0 /Users/briangiori/dev/newt/blegpio/bin/nrf52_boot/libs/os/os.a(os_callout.o)
 .bss           0x0000000000000000        0x0 /Users/briangiori/dev/newt/blegpio/bin/nrf52_boot/libs/os/os.a(os_callout.o)
 .text.os_callout_func_init
                0x0000000000000000       0x1e /Users/briangiori/dev/newt/blegpio/bin/nrf52_boot/libs/os/os.a(os_callout.o)
 .text.os_callout_stop
                0x0000000000000000       0x3c /Users/briangiori/dev/newt/blegpio/bin/nrf52_boot/libs/os/os.a(os_callout.o)
 .text.os_callout_reset
                0x0000000000000000       0x64 /Users/briangiori/dev/newt/blegpio/bin/nrf52_boot/libs/os/os.a(os_callout.o)
 .text          0x0000000000000000        0x0 /Users/briangiori/dev/newt/blegpio/bin/nrf52_boot/libs/os/os.a(os_eventq.o)
 .data          0x0000000000000000        0x0 /Users/briangiori/dev/newt/blegpio/bin/nrf52_boot/libs/os/os.a(os_eventq.o)
 .bss           0x0000000000000000        0x0 /Users/briangiori/dev/newt/blegpio/bin/nrf52_boot/libs/os/os.a(os_eventq.o)
 .text.os_eventq_init
                0x0000000000000000       0x12 /Users/briangiori/dev/newt/blegpio/bin/nrf52_boot/libs/os/os.a(os_eventq.o)
 .text.os_eventq_get
                0x0000000000000000       0x4c /Users/briangiori/dev/newt/blegpio/bin/nrf52_boot/libs/os/os.a(os_eventq.o)
 .text.os_eventq_poll
                0x0000000000000000       0xa0 /Users/briangiori/dev/newt/blegpio/bin/nrf52_boot/libs/os/os.a(os_eventq.o)
 .text.os_eventq_remove
                0x0000000000000000       0x3e /Users/briangiori/dev/newt/blegpio/bin/nrf52_boot/libs/os/os.a(os_eventq.o)
 .text          0x0000000000000000        0x0 /Users/briangiori/dev/newt/blegpio/bin/nrf52_boot/libs/os/os.a(os_fault.o)
 .data          0x0000000000000000        0x0 /Users/briangiori/dev/newt/blegpio/bin/nrf52_boot/libs/os/os.a(os_fault.o)
 .bss           0x0000000000000000        0x0 /Users/briangiori/dev/newt/blegpio/bin/nrf52_boot/libs/os/os.a(os_fault.o)
 .text          0x0000000000000000        0x0 /Users/briangiori/dev/newt/blegpio/bin/nrf52_boot/libs/os/os.a(os_heap.o)
 .data          0x0000000000000000        0x0 /Users/briangiori/dev/newt/blegpio/bin/nrf52_boot/libs/os/os.a(os_heap.o)
 .bss           0x0000000000000000        0x0 /Users/briangiori/dev/newt/blegpio/bin/nrf52_boot/libs/os/os.a(os_heap.o)
 .text          0x0000000000000000        0x0 /Users/briangiori/dev/newt/blegpio/bin/nrf52_boot/libs/os/os.a(os_mempool.o)
 .data          0x0000000000000000        0x0 /Users/briangiori/dev/newt/blegpio/bin/nrf52_boot/libs/os/os.a(os_mempool.o)
 .bss           0x0000000000000000        0x0 /Users/briangiori/dev/newt/blegpio/bin/nrf52_boot/libs/os/os.a(os_mempool.o)
 .text.os_mempool_info_get_next
                0x0000000000000000       0x30 /Users/briangiori/dev/newt/blegpio/bin/nrf52_boot/libs/os/os.a(os_mempool.o)
 .text          0x0000000000000000        0x0 /Users/briangiori/dev/newt/blegpio/bin/nrf52_boot/libs/os/os.a(os_mutex.o)
 .data          0x0000000000000000        0x0 /Users/briangiori/dev/newt/blegpio/bin/nrf52_boot/libs/os/os.a(os_mutex.o)
 .bss           0x0000000000000000        0x0 /Users/briangiori/dev/newt/blegpio/bin/nrf52_boot/libs/os/os.a(os_mutex.o)
 .text          0x0000000000000000        0x0 /Users/briangiori/dev/newt/blegpio/bin/nrf52_boot/libs/os/os.a(os_sched.o)
 .data          0x0000000000000000        0x0 /Users/briangiori/dev/newt/blegpio/bin/nrf52_boot/libs/os/os.a(os_sched.o)
 .bss           0x0000000000000000        0x0 /Users/briangiori/dev/newt/blegpio/bin/nrf52_boot/libs/os/os.a(os_sched.o)
 .text.os_sched_set_current_task
                0x0000000000000000        0xc /Users/briangiori/dev/newt/blegpio/bin/nrf52_boot/libs/os/os.a(os_sched.o)
 .text          0x0000000000000000        0x0 /Users/briangiori/dev/newt/blegpio/bin/nrf52_boot/libs/os/os.a(os_task.o)
 .data          0x0000000000000000        0x0 /Users/briangiori/dev/newt/blegpio/bin/nrf52_boot/libs/os/os.a(os_task.o)
 .bss           0x0000000000000000        0x0 /Users/briangiori/dev/newt/blegpio/bin/nrf52_boot/libs/os/os.a(os_task.o)
 .text.os_task_count
                0x0000000000000000        0xc /Users/briangiori/dev/newt/blegpio/bin/nrf52_boot/libs/os/os.a(os_task.o)
 .text.os_task_info_get_next
                0x0000000000000000       0x68 /Users/briangiori/dev/newt/blegpio/bin/nrf52_boot/libs/os/os.a(os_task.o)
 .text          0x0000000000000000        0x0 /Users/briangiori/dev/newt/blegpio/bin/nrf52_boot/libs/os/os.a(os_time.o)
 .data          0x0000000000000000        0x0 /Users/briangiori/dev/newt/blegpio/bin/nrf52_boot/libs/os/os.a(os_time.o)
 .bss           0x0000000000000000        0x0 /Users/briangiori/dev/newt/blegpio/bin/nrf52_boot/libs/os/os.a(os_time.o)
 .text.os_time_delay
                0x0000000000000000       0x28 /Users/briangiori/dev/newt/blegpio/bin/nrf52_boot/libs/os/os.a(os_time.o)
 .text.os_settimeofday
                0x0000000000000000       0x5c /Users/briangiori/dev/newt/blegpio/bin/nrf52_boot/libs/os/os.a(os_time.o)
 .text.os_gettimeofday
                0x0000000000000000       0x40 /Users/briangiori/dev/newt/blegpio/bin/nrf52_boot/libs/os/os.a(os_time.o)
 .text.os_get_uptime_usec
                0x0000000000000000       0x58 /Users/briangiori/dev/newt/blegpio/bin/nrf52_boot/libs/os/os.a(os_time.o)
 .text.os_time_ms_to_ticks
                0x0000000000000000       0x1a /Users/briangiori/dev/newt/blegpio/bin/nrf52_boot/libs/os/os.a(os_time.o)
 .bss           0x0000000000000000        0x0 /Users/briangiori/dev/newt/blegpio/bin/nrf52_boot/libs/os/os.a(HAL_CM4.o)
 .ARM.extab     0x0000000000000000        0x0 /Users/briangiori/dev/newt/blegpio/bin/nrf52_boot/libs/os/os.a(HAL_CM4.o)
 .text          0x0000000000000000        0x0 /Users/briangiori/dev/newt/blegpio/bin/nrf52_boot/libs/os/os.a(SVC_Table.o)
 .data          0x0000000000000000        0x0 /Users/briangiori/dev/newt/blegpio/bin/nrf52_boot/libs/os/os.a(SVC_Table.o)
 .bss           0x0000000000000000        0x0 /Users/briangiori/dev/newt/blegpio/bin/nrf52_boot/libs/os/os.a(SVC_Table.o)
 .text          0x0000000000000000        0x0 /Users/briangiori/dev/newt/blegpio/bin/nrf52_boot/libs/os/os.a(os_sanity.o)
 .data          0x0000000000000000        0x0 /Users/briangiori/dev/newt/blegpio/bin/nrf52_boot/libs/os/os.a(os_sanity.o)
 .bss           0x0000000000000000        0x0 /Users/briangiori/dev/newt/blegpio/bin/nrf52_boot/libs/os/os.a(os_sanity.o)
 .text.os_sanity_task_loop
                0x0000000000000000       0x6c /Users/briangiori/dev/newt/blegpio/bin/nrf52_boot/libs/os/os.a(os_sanity.o)
 .text.os_sanity_check_reset
                0x0000000000000000       0x1a /Users/briangiori/dev/newt/blegpio/bin/nrf52_boot/libs/os/os.a(os_sanity.o)
 .text.os_sanity_task_checkin
                0x0000000000000000       0x12 /Users/briangiori/dev/newt/blegpio/bin/nrf52_boot/libs/os/os.a(os_sanity.o)
 .text.os_sanity_task_init
                0x0000000000000000       0x4c /Users/briangiori/dev/newt/blegpio/bin/nrf52_boot/libs/os/os.a(os_sanity.o)
 .rodata.str1.1
                0x0000000000000000       0x16 /Users/briangiori/dev/newt/blegpio/bin/nrf52_boot/libs/os/os.a(os_sanity.o)
 .text          0x0000000000000000        0x0 /Users/briangiori/dev/newt/blegpio/bin/nrf52_boot/libs/util/util.a(crc16.o)
 .data          0x0000000000000000        0x0 /Users/briangiori/dev/newt/blegpio/bin/nrf52_boot/libs/util/util.a(crc16.o)
 .bss           0x0000000000000000        0x0 /Users/briangiori/dev/newt/blegpio/bin/nrf52_boot/libs/util/util.a(crc16.o)
 .text          0x0000000000000000        0x0 /Users/briangiori/dev/newt/blegpio/bin/nrf52_boot/sys/config/config.a(config.o)
 .data          0x0000000000000000        0x0 /Users/briangiori/dev/newt/blegpio/bin/nrf52_boot/sys/config/config.a(config.o)
 .bss           0x0000000000000000        0x0 /Users/briangiori/dev/newt/blegpio/bin/nrf52_boot/sys/config/config.a(config.o)
 .text.conf_value_from_str
                0x0000000000000000       0x6c /Users/briangiori/dev/newt/blegpio/bin/nrf52_boot/sys/config/config.a(config.o)
 .text.conf_str_from_value
                0x0000000000000000       0x40 /Users/briangiori/dev/newt/blegpio/bin/nrf52_boot/sys/config/config.a(config.o)
 .text.conf_get_value
                0x0000000000000000       0x24 /Users/briangiori/dev/newt/blegpio/bin/nrf52_boot/sys/config/config.a(config.o)
 .text          0x0000000000000000        0x0 /Users/briangiori/dev/newt/blegpio/bin/nrf52_boot/sys/config/config.a(config_file.o)
 .data          0x0000000000000000        0x0 /Users/briangiori/dev/newt/blegpio/bin/nrf52_boot/sys/config/config.a(config_file.o)
 .bss           0x0000000000000000        0x0 /Users/briangiori/dev/newt/blegpio/bin/nrf52_boot/sys/config/config.a(config_file.o)
 .text          0x0000000000000000        0x0 /Users/briangiori/dev/newt/blegpio/bin/nrf52_boot/sys/config/config.a(config_line.o)
 .data          0x0000000000000000        0x0 /Users/briangiori/dev/newt/blegpio/bin/nrf52_boot/sys/config/config.a(config_line.o)
 .bss           0x0000000000000000        0x0 /Users/briangiori/dev/newt/blegpio/bin/nrf52_boot/sys/config/config.a(config_line.o)
 .text          0x0000000000000000        0x0 /Users/briangiori/dev/newt/blegpio/bin/nrf52_boot/sys/config/config.a(config_store.o)
 .data          0x0000000000000000        0x0 /Users/briangiori/dev/newt/blegpio/bin/nrf52_boot/sys/config/config.a(config_store.o)
 .bss           0x0000000000000000        0x0 /Users/briangiori/dev/newt/blegpio/bin/nrf52_boot/sys/config/config.a(config_store.o)
 .text.conf_store_one
                0x0000000000000000        0x4 /Users/briangiori/dev/newt/blegpio/bin/nrf52_boot/sys/config/config.a(config_store.o)
 .text.conf_save
                0x0000000000000000       0x4c /Users/briangiori/dev/newt/blegpio/bin/nrf52_boot/sys/config/config.a(config_store.o)
 .text          0x0000000000000000        0x0 /Users/briangiori/dev/newt/blegpio/bin/nrf52_boot/sys/log/log.a(log.o)
 .data          0x0000000000000000        0x0 /Users/briangiori/dev/newt/blegpio/bin/nrf52_boot/sys/log/log.a(log.o)
 .bss           0x0000000000000000        0x0 /Users/briangiori/dev/newt/blegpio/bin/nrf52_boot/sys/log/log.a(log.o)
 .text.log_list_get_next
                0x0000000000000000       0x10 /Users/briangiori/dev/newt/blegpio/bin/nrf52_boot/sys/log/log.a(log.o)
 .text.log_append
                0x0000000000000000       0xc0 /Users/briangiori/dev/newt/blegpio/bin/nrf52_boot/sys/log/log.a(log.o)
 .text.log_printf
                0x0000000000000000       0x3c /Users/briangiori/dev/newt/blegpio/bin/nrf52_boot/sys/log/log.a(log.o)
 .text.log_walk
                0x0000000000000000        0x6 /Users/briangiori/dev/newt/blegpio/bin/nrf52_boot/sys/log/log.a(log.o)
 .text.log_read
                0x0000000000000000       0x14 /Users/briangiori/dev/newt/blegpio/bin/nrf52_boot/sys/log/log.a(log.o)
 .text.log_flush
                0x0000000000000000       0x14 /Users/briangiori/dev/newt/blegpio/bin/nrf52_boot/sys/log/log.a(log.o)
 .text          0x0000000000000000        0x0 /Users/briangiori/dev/newt/blegpio/bin/nrf52_boot/sys/log/log.a(log_console.o)
 .data          0x0000000000000000        0x0 /Users/briangiori/dev/newt/blegpio/bin/nrf52_boot/sys/log/log.a(log_console.o)
 .bss           0x0000000000000000        0x0 /Users/briangiori/dev/newt/blegpio/bin/nrf52_boot/sys/log/log.a(log_console.o)
 .text          0x0000000000000000        0x0 /Users/briangiori/dev/newt/blegpio/bin/nrf52_boot/fs/fs/fs.a(fs_file.o)
 .data          0x0000000000000000        0x0 /Users/briangiori/dev/newt/blegpio/bin/nrf52_boot/fs/fs/fs.a(fs_file.o)
 .bss           0x0000000000000000        0x0 /Users/briangiori/dev/newt/blegpio/bin/nrf52_boot/fs/fs/fs.a(fs_file.o)
 .text.fs_getpos
                0x0000000000000000        0xc /Users/briangiori/dev/newt/blegpio/bin/nrf52_boot/fs/fs/fs.a(fs_file.o)
 .text.fs_filelen
                0x0000000000000000        0xc /Users/briangiori/dev/newt/blegpio/bin/nrf52_boot/fs/fs/fs.a(fs_file.o)
 .text          0x0000000000000000        0x0 /Users/briangiori/dev/newt/blegpio/bin/nrf52_boot/fs/fs/fs.a(fs_mkdir.o)
 .data          0x0000000000000000        0x0 /Users/briangiori/dev/newt/blegpio/bin/nrf52_boot/fs/fs/fs.a(fs_mkdir.o)
 .bss           0x0000000000000000        0x0 /Users/briangiori/dev/newt/blegpio/bin/nrf52_boot/fs/fs/fs.a(fs_mkdir.o)
 .text.fs_mkdir
                0x0000000000000000        0xc /Users/briangiori/dev/newt/blegpio/bin/nrf52_boot/fs/fs/fs.a(fs_mkdir.o)
 .text          0x0000000000000000        0x0 /Users/briangiori/dev/newt/blegpio/bin/nrf52_boot/fs/fs/fs.a(fs_mount.o)
 .data          0x0000000000000000        0x0 /Users/briangiori/dev/newt/blegpio/bin/nrf52_boot/fs/fs/fs.a(fs_mount.o)
 .bss           0x0000000000000000        0x0 /Users/briangiori/dev/newt/blegpio/bin/nrf52_boot/fs/fs/fs.a(fs_mount.o)
 .text          0x0000000000000000        0x0 /Users/briangiori/dev/newt/blegpio/bin/nrf52_boot/fs/fs/fs.a(fsutil.o)
 .data          0x0000000000000000        0x0 /Users/briangiori/dev/newt/blegpio/bin/nrf52_boot/fs/fs/fs.a(fsutil.o)
 .bss           0x0000000000000000        0x0 /Users/briangiori/dev/newt/blegpio/bin/nrf52_boot/fs/fs/fs.a(fsutil.o)
 .text          0x0000000000000000        0x0 /Users/briangiori/dev/newt/blegpio/bin/nrf52_boot/hw/bsp/nrf52dk/nrf52dk.a(hal_bsp.o)
 .data          0x0000000000000000        0x0 /Users/briangiori/dev/newt/blegpio/bin/nrf52_boot/hw/bsp/nrf52dk/nrf52dk.a(hal_bsp.o)
 .bss           0x0000000000000000        0x0 /Users/briangiori/dev/newt/blegpio/bin/nrf52_boot/hw/bsp/nrf52dk/nrf52dk.a(hal_bsp.o)
 .text.bsp_uart_config
                0x0000000000000000        0x8 /Users/briangiori/dev/newt/blegpio/bin/nrf52_boot/hw/bsp/nrf52dk/nrf52dk.a(hal_bsp.o)
 .text.bsp_core_dump
                0x0000000000000000        0xc /Users/briangiori/dev/newt/blegpio/bin/nrf52_boot/hw/bsp/nrf52dk/nrf52dk.a(hal_bsp.o)
 .rodata.dump_cfg
                0x0000000000000000        0x8 /Users/briangiori/dev/newt/blegpio/bin/nrf52_boot/hw/bsp/nrf52dk/nrf52dk.a(hal_bsp.o)
 .rodata.uart_cfg
                0x0000000000000000        0x4 /Users/briangiori/dev/newt/blegpio/bin/nrf52_boot/hw/bsp/nrf52dk/nrf52dk.a(hal_bsp.o)
 .text          0x0000000000000000        0x0 /Users/briangiori/dev/newt/blegpio/bin/nrf52_boot/hw/bsp/nrf52dk/nrf52dk.a(libc_stubs.o)
 .data          0x0000000000000000        0x0 /Users/briangiori/dev/newt/blegpio/bin/nrf52_boot/hw/bsp/nrf52dk/nrf52dk.a(libc_stubs.o)
 .bss           0x0000000000000000        0x0 /Users/briangiori/dev/newt/blegpio/bin/nrf52_boot/hw/bsp/nrf52dk/nrf52dk.a(libc_stubs.o)
 .text._fstat   0x0000000000000000        0x6 /Users/briangiori/dev/newt/blegpio/bin/nrf52_boot/hw/bsp/nrf52dk/nrf52dk.a(libc_stubs.o)
 .text._kill    0x0000000000000000        0x6 /Users/briangiori/dev/newt/blegpio/bin/nrf52_boot/hw/bsp/nrf52dk/nrf52dk.a(libc_stubs.o)
 .text._write   0x0000000000000000        0x6 /Users/briangiori/dev/newt/blegpio/bin/nrf52_boot/hw/bsp/nrf52dk/nrf52dk.a(libc_stubs.o)
 .text._isatty  0x0000000000000000        0x6 /Users/briangiori/dev/newt/blegpio/bin/nrf52_boot/hw/bsp/nrf52dk/nrf52dk.a(libc_stubs.o)
 .text._lseek   0x0000000000000000        0x6 /Users/briangiori/dev/newt/blegpio/bin/nrf52_boot/hw/bsp/nrf52dk/nrf52dk.a(libc_stubs.o)
 .text._read    0x0000000000000000        0x6 /Users/briangiori/dev/newt/blegpio/bin/nrf52_boot/hw/bsp/nrf52dk/nrf52dk.a(libc_stubs.o)
 .text._getpid  0x0000000000000000        0x6 /Users/briangiori/dev/newt/blegpio/bin/nrf52_boot/hw/bsp/nrf52dk/nrf52dk.a(libc_stubs.o)
 .text          0x0000000000000000        0x0 /Users/briangiori/dev/newt/blegpio/bin/nrf52_boot/hw/bsp/nrf52dk/nrf52dk.a(os_bsp.o)
 .data          0x0000000000000000        0x0 /Users/briangiori/dev/newt/blegpio/bin/nrf52_boot/hw/bsp/nrf52dk/nrf52dk.a(os_bsp.o)
 .bss           0x0000000000000000        0x0 /Users/briangiori/dev/newt/blegpio/bin/nrf52_boot/hw/bsp/nrf52dk/nrf52dk.a(os_bsp.o)
 .text.bsp_imgr_current_slot
                0x0000000000000000        0x4 /Users/briangiori/dev/newt/blegpio/bin/nrf52_boot/hw/bsp/nrf52dk/nrf52dk.a(os_bsp.o)
 .text          0x0000000000000000        0x0 /Users/briangiori/dev/newt/blegpio/bin/nrf52_boot/hw/bsp/nrf52dk/nrf52dk.a(sbrk.o)
 .data          0x0000000000000000        0x0 /Users/briangiori/dev/newt/blegpio/bin/nrf52_boot/hw/bsp/nrf52dk/nrf52dk.a(sbrk.o)
 .bss           0x0000000000000000        0x0 /Users/briangiori/dev/newt/blegpio/bin/nrf52_boot/hw/bsp/nrf52dk/nrf52dk.a(sbrk.o)
 .text          0x0000000000000000        0x0 /Users/briangiori/dev/newt/blegpio/bin/nrf52_boot/hw/mcu/nordic/nrf52xxx/nrf52xxx.a(hal_flash.o)
 .data          0x0000000000000000        0x0 /Users/briangiori/dev/newt/blegpio/bin/nrf52_boot/hw/mcu/nordic/nrf52xxx/nrf52xxx.a(hal_flash.o)
 .bss           0x0000000000000000        0x0 /Users/briangiori/dev/newt/blegpio/bin/nrf52_boot/hw/mcu/nordic/nrf52xxx/nrf52xxx.a(hal_flash.o)
 .text          0x0000000000000000        0x0 /Users/briangiori/dev/newt/blegpio/bin/nrf52_boot/hw/mcu/nordic/nrf52xxx/nrf52xxx.a(hal_os_tick.o)
 .data          0x0000000000000000        0x0 /Users/briangiori/dev/newt/blegpio/bin/nrf52_boot/hw/mcu/nordic/nrf52xxx/nrf52xxx.a(hal_os_tick.o)
 .bss           0x0000000000000000        0x0 /Users/briangiori/dev/newt/blegpio/bin/nrf52_boot/hw/mcu/nordic/nrf52xxx/nrf52xxx.a(hal_os_tick.o)
 .text.os_tick_init
                0x0000000000000000       0xc8 /Users/briangiori/dev/newt/blegpio/bin/nrf52_boot/hw/mcu/nordic/nrf52xxx/nrf52xxx.a(hal_os_tick.o)
 .text          0x0000000000000000        0x0 /Users/briangiori/dev/newt/blegpio/bin/nrf52_boot/hw/mcu/nordic/nrf52xxx/nrf52xxx.a(hal_system.o)
 .data          0x0000000000000000        0x0 /Users/briangiori/dev/newt/blegpio/bin/nrf52_boot/hw/mcu/nordic/nrf52xxx/nrf52xxx.a(hal_system.o)
 .bss           0x0000000000000000        0x0 /Users/briangiori/dev/newt/blegpio/bin/nrf52_boot/hw/mcu/nordic/nrf52xxx/nrf52xxx.a(hal_system.o)
 .text          0x0000000000000000        0x0 /Users/briangiori/dev/newt/blegpio/bin/nrf52_boot/libs/baselibc/baselibc.a(memcmp.o)
 .data          0x0000000000000000        0x0 /Users/briangiori/dev/newt/blegpio/bin/nrf52_boot/libs/baselibc/baselibc.a(memcmp.o)
 .bss           0x0000000000000000        0x0 /Users/briangiori/dev/newt/blegpio/bin/nrf52_boot/libs/baselibc/baselibc.a(memcmp.o)
 .text          0x0000000000000000        0x0 /Users/briangiori/dev/newt/blegpio/bin/nrf52_boot/libs/baselibc/baselibc.a(memcpy.o)
 .data          0x0000000000000000        0x0 /Users/briangiori/dev/newt/blegpio/bin/nrf52_boot/libs/baselibc/baselibc.a(memcpy.o)
 .bss           0x0000000000000000        0x0 /Users/briangiori/dev/newt/blegpio/bin/nrf52_boot/libs/baselibc/baselibc.a(memcpy.o)
 .text          0x0000000000000000        0x0 /Users/briangiori/dev/newt/blegpio/bin/nrf52_boot/libs/baselibc/baselibc.a(realloc.o)
 .data          0x0000000000000000        0x0 /Users/briangiori/dev/newt/blegpio/bin/nrf52_boot/libs/baselibc/baselibc.a(realloc.o)
 .bss           0x0000000000000000        0x0 /Users/briangiori/dev/newt/blegpio/bin/nrf52_boot/libs/baselibc/baselibc.a(realloc.o)
 .text          0x0000000000000000        0x0 /Users/briangiori/dev/newt/blegpio/bin/nrf52_boot/libs/baselibc/baselibc.a(strcmp.o)
 .data          0x0000000000000000        0x0 /Users/briangiori/dev/newt/blegpio/bin/nrf52_boot/libs/baselibc/baselibc.a(strcmp.o)
 .bss           0x0000000000000000        0x0 /Users/briangiori/dev/newt/blegpio/bin/nrf52_boot/libs/baselibc/baselibc.a(strcmp.o)
 .text          0x0000000000000000        0x0 /Users/briangiori/dev/newt/blegpio/bin/nrf52_boot/libs/baselibc/baselibc.a(strncpy.o)
 .data          0x0000000000000000        0x0 /Users/briangiori/dev/newt/blegpio/bin/nrf52_boot/libs/baselibc/baselibc.a(strncpy.o)
 .bss           0x0000000000000000        0x0 /Users/briangiori/dev/newt/blegpio/bin/nrf52_boot/libs/baselibc/baselibc.a(strncpy.o)
 .text.strncpy  0x0000000000000000       0x1e /Users/briangiori/dev/newt/blegpio/bin/nrf52_boot/libs/baselibc/baselibc.a(strncpy.o)
 .debug_info    0x0000000000000000       0xf9 /Users/briangiori/dev/newt/blegpio/bin/nrf52_boot/libs/baselibc/baselibc.a(strncpy.o)
 .debug_abbrev  0x0000000000000000       0xb9 /Users/briangiori/dev/newt/blegpio/bin/nrf52_boot/libs/baselibc/baselibc.a(strncpy.o)
 .debug_loc     0x0000000000000000       0xbb /Users/briangiori/dev/newt/blegpio/bin/nrf52_boot/libs/baselibc/baselibc.a(strncpy.o)
 .debug_aranges
                0x0000000000000000       0x20 /Users/briangiori/dev/newt/blegpio/bin/nrf52_boot/libs/baselibc/baselibc.a(strncpy.o)
 .debug_ranges  0x0000000000000000       0x10 /Users/briangiori/dev/newt/blegpio/bin/nrf52_boot/libs/baselibc/baselibc.a(strncpy.o)
 .debug_line    0x0000000000000000       0x9d /Users/briangiori/dev/newt/blegpio/bin/nrf52_boot/libs/baselibc/baselibc.a(strncpy.o)
 .debug_str     0x0000000000000000      0x13a /Users/briangiori/dev/newt/blegpio/bin/nrf52_boot/libs/baselibc/baselibc.a(strncpy.o)
 .comment       0x0000000000000000       0x71 /Users/briangiori/dev/newt/blegpio/bin/nrf52_boot/libs/baselibc/baselibc.a(strncpy.o)
 .debug_frame   0x0000000000000000       0x28 /Users/briangiori/dev/newt/blegpio/bin/nrf52_boot/libs/baselibc/baselibc.a(strncpy.o)
 .ARM.attributes
                0x0000000000000000       0x33 /Users/briangiori/dev/newt/blegpio/bin/nrf52_boot/libs/baselibc/baselibc.a(strncpy.o)
 .text          0x0000000000000000        0x0 /Users/briangiori/dev/newt/blegpio/bin/nrf52_boot/libs/baselibc/baselibc.a(strtok_r.o)
 .data          0x0000000000000000        0x0 /Users/briangiori/dev/newt/blegpio/bin/nrf52_boot/libs/baselibc/baselibc.a(strtok_r.o)
 .bss           0x0000000000000000        0x0 /Users/briangiori/dev/newt/blegpio/bin/nrf52_boot/libs/baselibc/baselibc.a(strtok_r.o)
 .text          0x0000000000000000        0x0 /Users/briangiori/dev/newt/blegpio/bin/nrf52_boot/libs/baselibc/baselibc.a(strtol.o)
 .data          0x0000000000000000        0x0 /Users/briangiori/dev/newt/blegpio/bin/nrf52_boot/libs/baselibc/baselibc.a(strtol.o)
 .bss           0x0000000000000000        0x0 /Users/briangiori/dev/newt/blegpio/bin/nrf52_boot/libs/baselibc/baselibc.a(strtol.o)
 .text.strtol   0x0000000000000000        0xc /Users/briangiori/dev/newt/blegpio/bin/nrf52_boot/libs/baselibc/baselibc.a(strtol.o)
 .debug_info    0x0000000000000000      0x133 /Users/briangiori/dev/newt/blegpio/bin/nrf52_boot/libs/baselibc/baselibc.a(strtol.o)
 .debug_abbrev  0x0000000000000000       0xa3 /Users/briangiori/dev/newt/blegpio/bin/nrf52_boot/libs/baselibc/baselibc.a(strtol.o)
 .debug_loc     0x0000000000000000       0x63 /Users/briangiori/dev/newt/blegpio/bin/nrf52_boot/libs/baselibc/baselibc.a(strtol.o)
 .debug_aranges
                0x0000000000000000       0x20 /Users/briangiori/dev/newt/blegpio/bin/nrf52_boot/libs/baselibc/baselibc.a(strtol.o)
 .debug_ranges  0x0000000000000000       0x10 /Users/briangiori/dev/newt/blegpio/bin/nrf52_boot/libs/baselibc/baselibc.a(strtol.o)
 .debug_line    0x0000000000000000      0x160 /Users/briangiori/dev/newt/blegpio/bin/nrf52_boot/libs/baselibc/baselibc.a(strtol.o)
 .debug_str     0x0000000000000000      0x1cb /Users/briangiori/dev/newt/blegpio/bin/nrf52_boot/libs/baselibc/baselibc.a(strtol.o)
 .comment       0x0000000000000000       0x71 /Users/briangiori/dev/newt/blegpio/bin/nrf52_boot/libs/baselibc/baselibc.a(strtol.o)
 .debug_frame   0x0000000000000000       0x28 /Users/briangiori/dev/newt/blegpio/bin/nrf52_boot/libs/baselibc/baselibc.a(strtol.o)
 .ARM.attributes
                0x0000000000000000       0x33 /Users/briangiori/dev/newt/blegpio/bin/nrf52_boot/libs/baselibc/baselibc.a(strtol.o)
 .text          0x0000000000000000        0x0 /Users/briangiori/dev/newt/blegpio/bin/nrf52_boot/libs/baselibc/baselibc.a(tinyprintf.o)
 .data          0x0000000000000000        0x0 /Users/briangiori/dev/newt/blegpio/bin/nrf52_boot/libs/baselibc/baselibc.a(tinyprintf.o)
 .bss           0x0000000000000000        0x0 /Users/briangiori/dev/newt/blegpio/bin/nrf52_boot/libs/baselibc/baselibc.a(tinyprintf.o)
 .text.ui2a     0x0000000000000000       0xd4 /Users/briangiori/dev/newt/blegpio/bin/nrf52_boot/libs/baselibc/baselibc.a(tinyprintf.o)
 .text.putf     0x0000000000000000       0x2e /Users/briangiori/dev/newt/blegpio/bin/nrf52_boot/libs/baselibc/baselibc.a(tinyprintf.o)
 .text.putchw   0x0000000000000000       0xe8 /Users/briangiori/dev/newt/blegpio/bin/nrf52_boot/libs/baselibc/baselibc.a(tinyprintf.o)
 .text.intarg   0x0000000000000000       0x30 /Users/briangiori/dev/newt/blegpio/bin/nrf52_boot/libs/baselibc/baselibc.a(tinyprintf.o)
 .text.tfp_format
                0x0000000000000000      0x190 /Users/briangiori/dev/newt/blegpio/bin/nrf52_boot/libs/baselibc/baselibc.a(tinyprintf.o)
 .text.vfprintf
                0x0000000000000000        0x4 /Users/briangiori/dev/newt/blegpio/bin/nrf52_boot/libs/baselibc/baselibc.a(tinyprintf.o)
 .text.fprintf  0x0000000000000000       0x1a /Users/briangiori/dev/newt/blegpio/bin/nrf52_boot/libs/baselibc/baselibc.a(tinyprintf.o)
 .text.printf   0x0000000000000000       0x24 /Users/briangiori/dev/newt/blegpio/bin/nrf52_boot/libs/baselibc/baselibc.a(tinyprintf.o)
 .text.vsnprintf
                0x0000000000000000       0x26 /Users/briangiori/dev/newt/blegpio/bin/nrf52_boot/libs/baselibc/baselibc.a(tinyprintf.o)
 .text.snprintf
                0x0000000000000000       0x1a /Users/briangiori/dev/newt/blegpio/bin/nrf52_boot/libs/baselibc/baselibc.a(tinyprintf.o)
 .debug_info    0x0000000000000000      0xa37 /Users/briangiori/dev/newt/blegpio/bin/nrf52_boot/libs/baselibc/baselibc.a(tinyprintf.o)
 .debug_abbrev  0x0000000000000000      0x3c9 /Users/briangiori/dev/newt/blegpio/bin/nrf52_boot/libs/baselibc/baselibc.a(tinyprintf.o)
 .debug_loc     0x0000000000000000      0x901 /Users/briangiori/dev/newt/blegpio/bin/nrf52_boot/libs/baselibc/baselibc.a(tinyprintf.o)
 .debug_aranges
                0x0000000000000000       0x68 /Users/briangiori/dev/newt/blegpio/bin/nrf52_boot/libs/baselibc/baselibc.a(tinyprintf.o)
 .debug_ranges  0x0000000000000000       0xb0 /Users/briangiori/dev/newt/blegpio/bin/nrf52_boot/libs/baselibc/baselibc.a(tinyprintf.o)
 .debug_line    0x0000000000000000      0x2bd /Users/briangiori/dev/newt/blegpio/bin/nrf52_boot/libs/baselibc/baselibc.a(tinyprintf.o)
 .debug_str     0x0000000000000000      0x284 /Users/briangiori/dev/newt/blegpio/bin/nrf52_boot/libs/baselibc/baselibc.a(tinyprintf.o)
 .comment       0x0000000000000000       0x71 /Users/briangiori/dev/newt/blegpio/bin/nrf52_boot/libs/baselibc/baselibc.a(tinyprintf.o)
 .debug_frame   0x0000000000000000      0x164 /Users/briangiori/dev/newt/blegpio/bin/nrf52_boot/libs/baselibc/baselibc.a(tinyprintf.o)
 .ARM.attributes
                0x0000000000000000       0x33 /Users/briangiori/dev/newt/blegpio/bin/nrf52_boot/libs/baselibc/baselibc.a(tinyprintf.o)
 .text          0x0000000000000000        0x0 /Users/briangiori/dev/newt/blegpio/bin/nrf52_boot/libs/baselibc/baselibc.a(memfile.o)
 .data          0x0000000000000000        0x0 /Users/briangiori/dev/newt/blegpio/bin/nrf52_boot/libs/baselibc/baselibc.a(memfile.o)
 .bss           0x0000000000000000        0x0 /Users/briangiori/dev/newt/blegpio/bin/nrf52_boot/libs/baselibc/baselibc.a(memfile.o)
 .text.memfile_write
                0x0000000000000000       0x2a /Users/briangiori/dev/newt/blegpio/bin/nrf52_boot/libs/baselibc/baselibc.a(memfile.o)
 .text.fmemopen_w
                0x0000000000000000       0x14 /Users/briangiori/dev/newt/blegpio/bin/nrf52_boot/libs/baselibc/baselibc.a(memfile.o)
 .rodata.MemFile_methods
                0x0000000000000000        0x8 /Users/briangiori/dev/newt/blegpio/bin/nrf52_boot/libs/baselibc/baselibc.a(memfile.o)
 .debug_info    0x0000000000000000      0x1f4 /Users/briangiori/dev/newt/blegpio/bin/nrf52_boot/libs/baselibc/baselibc.a(memfile.o)
 .debug_abbrev  0x0000000000000000      0x100 /Users/briangiori/dev/newt/blegpio/bin/nrf52_boot/libs/baselibc/baselibc.a(memfile.o)
 .debug_loc     0x0000000000000000       0xd0 /Users/briangiori/dev/newt/blegpio/bin/nrf52_boot/libs/baselibc/baselibc.a(memfile.o)
 .debug_aranges
                0x0000000000000000       0x28 /Users/briangiori/dev/newt/blegpio/bin/nrf52_boot/libs/baselibc/baselibc.a(memfile.o)
 .debug_ranges  0x0000000000000000       0x18 /Users/briangiori/dev/newt/blegpio/bin/nrf52_boot/libs/baselibc/baselibc.a(memfile.o)
 .debug_line    0x0000000000000000      0x116 /Users/briangiori/dev/newt/blegpio/bin/nrf52_boot/libs/baselibc/baselibc.a(memfile.o)
 .debug_str     0x0000000000000000      0x1ac /Users/briangiori/dev/newt/blegpio/bin/nrf52_boot/libs/baselibc/baselibc.a(memfile.o)
 .comment       0x0000000000000000       0x71 /Users/briangiori/dev/newt/blegpio/bin/nrf52_boot/libs/baselibc/baselibc.a(memfile.o)
 .debug_frame   0x0000000000000000       0x44 /Users/briangiori/dev/newt/blegpio/bin/nrf52_boot/libs/baselibc/baselibc.a(memfile.o)
 .ARM.attributes
                0x0000000000000000       0x33 /Users/briangiori/dev/newt/blegpio/bin/nrf52_boot/libs/baselibc/baselibc.a(memfile.o)
 .text          0x0000000000000000        0x0 /Users/briangiori/dev/newt/blegpio/bin/nrf52_boot/libs/baselibc/baselibc.a(strntoumax.o)
 .data          0x0000000000000000        0x0 /Users/briangiori/dev/newt/blegpio/bin/nrf52_boot/libs/baselibc/baselibc.a(strntoumax.o)
 .bss           0x0000000000000000        0x0 /Users/briangiori/dev/newt/blegpio/bin/nrf52_boot/libs/baselibc/baselibc.a(strntoumax.o)
 .text.strntoumax
                0x0000000000000000      0x10e /Users/briangiori/dev/newt/blegpio/bin/nrf52_boot/libs/baselibc/baselibc.a(strntoumax.o)
 .debug_info    0x0000000000000000      0x19d /Users/briangiori/dev/newt/blegpio/bin/nrf52_boot/libs/baselibc/baselibc.a(strntoumax.o)
 .debug_abbrev  0x0000000000000000      0x113 /Users/briangiori/dev/newt/blegpio/bin/nrf52_boot/libs/baselibc/baselibc.a(strntoumax.o)
 .debug_loc     0x0000000000000000      0x37d /Users/briangiori/dev/newt/blegpio/bin/nrf52_boot/libs/baselibc/baselibc.a(strntoumax.o)
 .debug_aranges
                0x0000000000000000       0x20 /Users/briangiori/dev/newt/blegpio/bin/nrf52_boot/libs/baselibc/baselibc.a(strntoumax.o)
 .debug_ranges  0x0000000000000000       0x48 /Users/briangiori/dev/newt/blegpio/bin/nrf52_boot/libs/baselibc/baselibc.a(strntoumax.o)
 .debug_line    0x0000000000000000      0x1e4 /Users/briangiori/dev/newt/blegpio/bin/nrf52_boot/libs/baselibc/baselibc.a(strntoumax.o)
 .debug_str     0x0000000000000000      0x1d9 /Users/briangiori/dev/newt/blegpio/bin/nrf52_boot/libs/baselibc/baselibc.a(strntoumax.o)
 .comment       0x0000000000000000       0x71 /Users/briangiori/dev/newt/blegpio/bin/nrf52_boot/libs/baselibc/baselibc.a(strntoumax.o)
 .debug_frame   0x0000000000000000       0x30 /Users/briangiori/dev/newt/blegpio/bin/nrf52_boot/libs/baselibc/baselibc.a(strntoumax.o)
 .ARM.attributes
                0x0000000000000000       0x33 /Users/briangiori/dev/newt/blegpio/bin/nrf52_boot/libs/baselibc/baselibc.a(strntoumax.o)
 .text          0x0000000000000000        0x0 /Users/briangiori/dev/newt/blegpio/bin/nrf52_boot/libs/baselibc/baselibc.a(strsep.o)
 .data          0x0000000000000000        0x0 /Users/briangiori/dev/newt/blegpio/bin/nrf52_boot/libs/baselibc/baselibc.a(strsep.o)
 .bss           0x0000000000000000        0x0 /Users/briangiori/dev/newt/blegpio/bin/nrf52_boot/libs/baselibc/baselibc.a(strsep.o)
 .text          0x0000000000000000        0x0 /Users/briangiori/dev/newt/blegpio/bin/nrf52_boot/libs/baselibc/baselibc.a(strpbrk.o)
 .data          0x0000000000000000        0x0 /Users/briangiori/dev/newt/blegpio/bin/nrf52_boot/libs/baselibc/baselibc.a(strpbrk.o)
 .bss           0x0000000000000000        0x0 /Users/briangiori/dev/newt/blegpio/bin/nrf52_boot/libs/baselibc/baselibc.a(strpbrk.o)
 .text          0x0000000000000000        0x0 /Users/briangiori/dev/newt/blegpio/bin/nrf52_boot/libs/util/util.a(base64.o)
 .data          0x0000000000000000        0x0 /Users/briangiori/dev/newt/blegpio/bin/nrf52_boot/libs/util/util.a(base64.o)
 .bss           0x0000000000000000        0x0 /Users/briangiori/dev/newt/blegpio/bin/nrf52_boot/libs/util/util.a(base64.o)
 .text.base64_pad
                0x0000000000000000       0x30 /Users/briangiori/dev/newt/blegpio/bin/nrf52_boot/libs/util/util.a(base64.o)
 .text          0x0000000000000000       0x30 /usr/local/Cellar/gcc-arm-none-eabi-49/20150609/bin/../lib/gcc/arm-none-eabi/4.9.3/armv7e-m/libgcc.a(_aeabi_uldivmod.o)
 .data          0x0000000000000000        0x0 /usr/local/Cellar/gcc-arm-none-eabi-49/20150609/bin/../lib/gcc/arm-none-eabi/4.9.3/armv7e-m/libgcc.a(_aeabi_uldivmod.o)
 .bss           0x0000000000000000        0x0 /usr/local/Cellar/gcc-arm-none-eabi-49/20150609/bin/../lib/gcc/arm-none-eabi/4.9.3/armv7e-m/libgcc.a(_aeabi_uldivmod.o)
 .debug_frame   0x0000000000000000       0x28 /usr/local/Cellar/gcc-arm-none-eabi-49/20150609/bin/../lib/gcc/arm-none-eabi/4.9.3/armv7e-m/libgcc.a(_aeabi_uldivmod.o)
 .ARM.attributes
                0x0000000000000000       0x1e /usr/local/Cellar/gcc-arm-none-eabi-49/20150609/bin/../lib/gcc/arm-none-eabi/4.9.3/armv7e-m/libgcc.a(_aeabi_uldivmod.o)
 .text          0x0000000000000000       0x60 /usr/local/Cellar/gcc-arm-none-eabi-49/20150609/bin/../lib/gcc/arm-none-eabi/4.9.3/armv7e-m/libgcc.a(bpabi.o)
 .data          0x0000000000000000        0x0 /usr/local/Cellar/gcc-arm-none-eabi-49/20150609/bin/../lib/gcc/arm-none-eabi/4.9.3/armv7e-m/libgcc.a(bpabi.o)
 .bss           0x0000000000000000        0x0 /usr/local/Cellar/gcc-arm-none-eabi-49/20150609/bin/../lib/gcc/arm-none-eabi/4.9.3/armv7e-m/libgcc.a(bpabi.o)
 .debug_frame   0x0000000000000000       0x50 /usr/local/Cellar/gcc-arm-none-eabi-49/20150609/bin/../lib/gcc/arm-none-eabi/4.9.3/armv7e-m/libgcc.a(bpabi.o)
 .ARM.attributes
                0x0000000000000000       0x2e /usr/local/Cellar/gcc-arm-none-eabi-49/20150609/bin/../lib/gcc/arm-none-eabi/4.9.3/armv7e-m/libgcc.a(bpabi.o)
 .text          0x0000000000000000        0x4 /usr/local/Cellar/gcc-arm-none-eabi-49/20150609/bin/../lib/gcc/arm-none-eabi/4.9.3/armv7e-m/libgcc.a(_dvmd_tls.o)
 .data          0x0000000000000000        0x0 /usr/local/Cellar/gcc-arm-none-eabi-49/20150609/bin/../lib/gcc/arm-none-eabi/4.9.3/armv7e-m/libgcc.a(_dvmd_tls.o)
 .bss           0x0000000000000000        0x0 /usr/local/Cellar/gcc-arm-none-eabi-49/20150609/bin/../lib/gcc/arm-none-eabi/4.9.3/armv7e-m/libgcc.a(_dvmd_tls.o)
 .ARM.attributes
                0x0000000000000000       0x1e /usr/local/Cellar/gcc-arm-none-eabi-49/20150609/bin/../lib/gcc/arm-none-eabi/4.9.3/armv7e-m/libgcc.a(_dvmd_tls.o)
 .text          0x0000000000000000      0x29c /usr/local/Cellar/gcc-arm-none-eabi-49/20150609/bin/../lib/gcc/arm-none-eabi/4.9.3/armv7e-m/libgcc.a(_divdi3.o)
 .data          0x0000000000000000        0x0 /usr/local/Cellar/gcc-arm-none-eabi-49/20150609/bin/../lib/gcc/arm-none-eabi/4.9.3/armv7e-m/libgcc.a(_divdi3.o)
 .bss           0x0000000000000000        0x0 /usr/local/Cellar/gcc-arm-none-eabi-49/20150609/bin/../lib/gcc/arm-none-eabi/4.9.3/armv7e-m/libgcc.a(_divdi3.o)
 .ARM.extab     0x0000000000000000        0x0 /usr/local/Cellar/gcc-arm-none-eabi-49/20150609/bin/../lib/gcc/arm-none-eabi/4.9.3/armv7e-m/libgcc.a(_divdi3.o)
 .ARM.exidx     0x0000000000000000        0x8 /usr/local/Cellar/gcc-arm-none-eabi-49/20150609/bin/../lib/gcc/arm-none-eabi/4.9.3/armv7e-m/libgcc.a(_divdi3.o)
 .debug_frame   0x0000000000000000       0x34 /usr/local/Cellar/gcc-arm-none-eabi-49/20150609/bin/../lib/gcc/arm-none-eabi/4.9.3/armv7e-m/libgcc.a(_divdi3.o)
 .ARM.attributes
                0x0000000000000000       0x2e /usr/local/Cellar/gcc-arm-none-eabi-49/20150609/bin/../lib/gcc/arm-none-eabi/4.9.3/armv7e-m/libgcc.a(_divdi3.o)
 .text          0x0000000000000000      0x26c /usr/local/Cellar/gcc-arm-none-eabi-49/20150609/bin/../lib/gcc/arm-none-eabi/4.9.3/armv7e-m/libgcc.a(_udivdi3.o)
 .data          0x0000000000000000        0x0 /usr/local/Cellar/gcc-arm-none-eabi-49/20150609/bin/../lib/gcc/arm-none-eabi/4.9.3/armv7e-m/libgcc.a(_udivdi3.o)
 .bss           0x0000000000000000        0x0 /usr/local/Cellar/gcc-arm-none-eabi-49/20150609/bin/../lib/gcc/arm-none-eabi/4.9.3/armv7e-m/libgcc.a(_udivdi3.o)
 .ARM.extab     0x0000000000000000        0x0 /usr/local/Cellar/gcc-arm-none-eabi-49/20150609/bin/../lib/gcc/arm-none-eabi/4.9.3/armv7e-m/libgcc.a(_udivdi3.o)
 .ARM.exidx     0x0000000000000000        0x8 /usr/local/Cellar/gcc-arm-none-eabi-49/20150609/bin/../lib/gcc/arm-none-eabi/4.9.3/armv7e-m/libgcc.a(_udivdi3.o)
 .debug_frame   0x0000000000000000       0x30 /usr/local/Cellar/gcc-arm-none-eabi-49/20150609/bin/../lib/gcc/arm-none-eabi/4.9.3/armv7e-m/libgcc.a(_udivdi3.o)
 .ARM.attributes
                0x0000000000000000       0x2e /usr/local/Cellar/gcc-arm-none-eabi-49/20150609/bin/../lib/gcc/arm-none-eabi/4.9.3/armv7e-m/libgcc.a(_udivdi3.o)
 .text          0x0000000000000000        0x0 /usr/local/Cellar/gcc-arm-none-eabi-49/20150609/bin/../lib/gcc/arm-none-eabi/4.9.3/../../../../arm-none-eabi/lib/armv7e-m/libg.a(lib_a-errno.o)
 .data          0x0000000000000000        0x0 /usr/local/Cellar/gcc-arm-none-eabi-49/20150609/bin/../lib/gcc/arm-none-eabi/4.9.3/../../../../arm-none-eabi/lib/armv7e-m/libg.a(lib_a-errno.o)
 .bss           0x0000000000000000        0x0 /usr/local/Cellar/gcc-arm-none-eabi-49/20150609/bin/../lib/gcc/arm-none-eabi/4.9.3/../../../../arm-none-eabi/lib/armv7e-m/libg.a(lib_a-errno.o)
 .text          0x0000000000000000        0x0 /usr/local/Cellar/gcc-arm-none-eabi-49/20150609/bin/../lib/gcc/arm-none-eabi/4.9.3/../../../../arm-none-eabi/lib/armv7e-m/libg.a(lib_a-impure.o)
 .data          0x0000000000000000        0x0 /usr/local/Cellar/gcc-arm-none-eabi-49/20150609/bin/../lib/gcc/arm-none-eabi/4.9.3/../../../../arm-none-eabi/lib/armv7e-m/libg.a(lib_a-impure.o)
 .bss           0x0000000000000000        0x0 /usr/local/Cellar/gcc-arm-none-eabi-49/20150609/bin/../lib/gcc/arm-none-eabi/4.9.3/../../../../arm-none-eabi/lib/armv7e-m/libg.a(lib_a-impure.o)
 .rodata._global_impure_ptr
                0x0000000000000000        0x4 /usr/local/Cellar/gcc-arm-none-eabi-49/20150609/bin/../lib/gcc/arm-none-eabi/4.9.3/../../../../arm-none-eabi/lib/armv7e-m/libg.a(lib_a-impure.o)
 .text          0x0000000000000000        0x0 /usr/local/Cellar/gcc-arm-none-eabi-49/20150609/bin/../lib/gcc/arm-none-eabi/4.9.3/../../../../arm-none-eabi/lib/armv7e-m/libg.a(lib_a-init.o)
 .data          0x0000000000000000        0x0 /usr/local/Cellar/gcc-arm-none-eabi-49/20150609/bin/../lib/gcc/arm-none-eabi/4.9.3/../../../../arm-none-eabi/lib/armv7e-m/libg.a(lib_a-init.o)
 .bss           0x0000000000000000        0x0 /usr/local/Cellar/gcc-arm-none-eabi-49/20150609/bin/../lib/gcc/arm-none-eabi/4.9.3/../../../../arm-none-eabi/lib/armv7e-m/libg.a(lib_a-init.o)
 .text          0x0000000000000000        0x0 /usr/local/Cellar/gcc-arm-none-eabi-49/20150609/bin/../lib/gcc/arm-none-eabi/4.9.3/armv7e-m/crtend.o
 .data          0x0000000000000000        0x0 /usr/local/Cellar/gcc-arm-none-eabi-49/20150609/bin/../lib/gcc/arm-none-eabi/4.9.3/armv7e-m/crtend.o
 .bss           0x0000000000000000        0x0 /usr/local/Cellar/gcc-arm-none-eabi-49/20150609/bin/../lib/gcc/arm-none-eabi/4.9.3/armv7e-m/crtend.o
 .eh_frame      0x0000000000000000        0x4 /usr/local/Cellar/gcc-arm-none-eabi-49/20150609/bin/../lib/gcc/arm-none-eabi/4.9.3/armv7e-m/crtend.o
 .jcr           0x0000000000000000        0x4 /usr/local/Cellar/gcc-arm-none-eabi-49/20150609/bin/../lib/gcc/arm-none-eabi/4.9.3/armv7e-m/crtend.o
 .ARM.attributes
                0x0000000000000000       0x2e /usr/local/Cellar/gcc-arm-none-eabi-49/20150609/bin/../lib/gcc/arm-none-eabi/4.9.3/armv7e-m/crtend.o
 .text          0x0000000000000000        0x0 /usr/local/Cellar/gcc-arm-none-eabi-49/20150609/bin/../lib/gcc/arm-none-eabi/4.9.3/armv7e-m/crtn.o
 .data          0x0000000000000000        0x0 /usr/local/Cellar/gcc-arm-none-eabi-49/20150609/bin/../lib/gcc/arm-none-eabi/4.9.3/armv7e-m/crtn.o
 .bss           0x0000000000000000        0x0 /usr/local/Cellar/gcc-arm-none-eabi-49/20150609/bin/../lib/gcc/arm-none-eabi/4.9.3/armv7e-m/crtn.o

Memory Configuration

Name             Origin             Length             Attributes
FLASH            0x0000000000000000 0x0000000000008000 xr
RAM              0x0000000020000000 0x0000000000010000 xrw
*default*        0x0000000000000000 0xffffffffffffffff

Linker script and memory map

LOAD /usr/local/Cellar/gcc-arm-none-eabi-49/20150609/bin/../lib/gcc/arm-none-eabi/4.9.3/armv7e-m/crti.o
LOAD /usr/local/Cellar/gcc-arm-none-eabi-49/20150609/bin/../lib/gcc/arm-none-eabi/4.9.3/armv7e-m/crtbegin.o
LOAD /usr/local/Cellar/gcc-arm-none-eabi-49/20150609/bin/../lib/gcc/arm-none-eabi/4.9.3/../../../../arm-none-eabi/lib/armv7e-m/crt0.o
START GROUP
LOAD /Users/briangiori/dev/newt/blegpio/bin/nrf52_boot/apps/boot/boot.a
LOAD /Users/briangiori/dev/newt/blegpio/bin/nrf52_boot/fs/fs/fs.a
LOAD /Users/briangiori/dev/newt/blegpio/bin/nrf52_boot/fs/nffs/nffs.a
LOAD /Users/briangiori/dev/newt/blegpio/bin/nrf52_boot/hw/bsp/nrf52dk/nrf52dk.a
LOAD /Users/briangiori/dev/newt/blegpio/bin/nrf52_boot/hw/hal/hal.a
LOAD /Users/briangiori/dev/newt/blegpio/bin/nrf52_boot/hw/mcu/nordic/nrf52xxx/nrf52xxx.a
LOAD /Users/briangiori/dev/newt/blegpio/bin/nrf52_boot/libs/baselibc/baselibc.a
LOAD /Users/briangiori/dev/newt/blegpio/bin/nrf52_boot/libs/bootutil/bootutil.a
LOAD /Users/briangiori/dev/newt/blegpio/bin/nrf52_boot/libs/cmsis-core/cmsis-core.a
LOAD /Users/briangiori/dev/newt/blegpio/bin/nrf52_boot/libs/mbedtls/mbedtls.a
LOAD /Users/briangiori/dev/newt/blegpio/bin/nrf52_boot/libs/os/os.a
LOAD /Users/briangiori/dev/newt/blegpio/bin/nrf52_boot/libs/testutil/testutil.a
LOAD /Users/briangiori/dev/newt/blegpio/bin/nrf52_boot/libs/util/util.a
LOAD /Users/briangiori/dev/newt/blegpio/bin/nrf52_boot/sys/config/config.a
LOAD /Users/briangiori/dev/newt/blegpio/bin/nrf52_boot/sys/log/log.a
END GROUP
LOAD /usr/local/Cellar/gcc-arm-none-eabi-49/20150609/bin/../lib/gcc/arm-none-eabi/4.9.3/armv7e-m/libgcc.a
START GROUP
LOAD /usr/local/Cellar/gcc-arm-none-eabi-49/20150609/bin/../lib/gcc/arm-none-eabi/4.9.3/armv7e-m/libgcc.a
LOAD /usr/local/Cellar/gcc-arm-none-eabi-49/20150609/bin/../lib/gcc/arm-none-eabi/4.9.3/../../../../arm-none-eabi/lib/armv7e-m/libg.a
LOAD /usr/local/Cellar/gcc-arm-none-eabi-49/20150609/bin/../lib/gcc/arm-none-eabi/4.9.3/../../../../arm-none-eabi/lib/armv7e-m/libc.a
END GROUP
LOAD /usr/local/Cellar/gcc-arm-none-eabi-49/20150609/bin/../lib/gcc/arm-none-eabi/4.9.3/armv7e-m/crtend.o
LOAD /usr/local/Cellar/gcc-arm-none-eabi-49/20150609/bin/../lib/gcc/arm-none-eabi/4.9.3/armv7e-m/crtn.o

.text           0x0000000000000000     0x676c
                0x0000000000000000                __isr_vector_start = .
 *(.isr_vector)
 .isr_vector    0x0000000000000000       0xd8 /Users/briangiori/dev/newt/blegpio/bin/nrf52_boot/hw/bsp/nrf52dk/nrf52dk.a(gcc_startup_nrf52.o)
                0x0000000000000000                __isr_vector
                0x00000000000000d8                __isr_vector_end = .
 *(.text*)
 .text          0x00000000000000d8       0x74 /usr/local/Cellar/gcc-arm-none-eabi-49/20150609/bin/../lib/gcc/arm-none-eabi/4.9.3/../../../../arm-none-eabi/lib/armv7e-m/crt0.o
                0x00000000000000d8                _mainCRTStartup
                0x00000000000000d8                _start
 .text.startup.main
                0x000000000000014c      0x128 /Users/briangiori/dev/newt/blegpio/bin/nrf52_boot/apps/boot/boot.a(boot.o)
                0x000000000000014c                main
 .text.nffs_lock
                0x0000000000000274       0x28 /Users/briangiori/dev/newt/blegpio/bin/nrf52_boot/fs/nffs/nffs.a(nffs.o)
 .text.nffs_unlock
                0x000000000000029c       0x24 /Users/briangiori/dev/newt/blegpio/bin/nrf52_boot/fs/nffs/nffs.a(nffs.o)
 .text.nffs_getpos
                0x00000000000002c0       0x12 /Users/briangiori/dev/newt/blegpio/bin/nrf52_boot/fs/nffs/nffs.a(nffs.o)
 .text.nffs_closedir
                0x00000000000002d2       0x18 /Users/briangiori/dev/newt/blegpio/bin/nrf52_boot/fs/nffs/nffs.a(nffs.o)
 .text.nffs_readdir
                0x00000000000002ea       0x1c /Users/briangiori/dev/newt/blegpio/bin/nrf52_boot/fs/nffs/nffs.a(nffs.o)
 .text.nffs_opendir
                0x0000000000000306       0x26 /Users/briangiori/dev/newt/blegpio/bin/nrf52_boot/fs/nffs/nffs.a(nffs.o)
 .text.nffs_mkdir
                0x000000000000032c       0x24 /Users/briangiori/dev/newt/blegpio/bin/nrf52_boot/fs/nffs/nffs.a(nffs.o)
 .text.nffs_rename
                0x0000000000000350       0x26 /Users/briangiori/dev/newt/blegpio/bin/nrf52_boot/fs/nffs/nffs.a(nffs.o)
 .text.nffs_unlink
                0x0000000000000376       0x22 /Users/briangiori/dev/newt/blegpio/bin/nrf52_boot/fs/nffs/nffs.a(nffs.o)
 .text.nffs_file_len
                0x0000000000000398       0x1c /Users/briangiori/dev/newt/blegpio/bin/nrf52_boot/fs/nffs/nffs.a(nffs.o)
 .text.nffs_seek
                0x00000000000003b4       0x1c /Users/briangiori/dev/newt/blegpio/bin/nrf52_boot/fs/nffs/nffs.a(nffs.o)
 .text.nffs_write
                0x00000000000003d0       0x2a /Users/briangiori/dev/newt/blegpio/bin/nrf52_boot/fs/nffs/nffs.a(nffs.o)
 .text.nffs_read
                0x00000000000003fa       0x24 /Users/briangiori/dev/newt/blegpio/bin/nrf52_boot/fs/nffs/nffs.a(nffs.o)
 .text.nffs_close
                0x000000000000041e       0x1a /Users/briangiori/dev/newt/blegpio/bin/nrf52_boot/fs/nffs/nffs.a(nffs.o)
 .text.nffs_open
                0x0000000000000438       0x38 /Users/briangiori/dev/newt/blegpio/bin/nrf52_boot/fs/nffs/nffs.a(nffs.o)
 .text.nffs_dirent_is_dir
                0x0000000000000470       0x30 /Users/briangiori/dev/newt/blegpio/bin/nrf52_boot/fs/nffs/nffs.a(nffs.o)
 .text.nffs_dirent_name
                0x00000000000004a0       0x3c /Users/briangiori/dev/newt/blegpio/bin/nrf52_boot/fs/nffs/nffs.a(nffs.o)
 .text.nffs_detect
                0x00000000000004dc       0x18 /Users/briangiori/dev/newt/blegpio/bin/nrf52_boot/fs/nffs/nffs.a(nffs.o)
                0x00000000000004dc                nffs_detect
 .text.nffs_init
                0x00000000000004f4      0x100 /Users/briangiori/dev/newt/blegpio/bin/nrf52_boot/fs/nffs/nffs.a(nffs.o)
                0x00000000000004f4                nffs_init
 .text.nffs_cache_inode_free_blocks
                0x00000000000005f4       0x28 /Users/briangiori/dev/newt/blegpio/bin/nrf52_boot/fs/nffs/nffs.a(nffs_cache.o)
 .text.nffs_cache_inode_free
                0x000000000000061c       0x1c /Users/briangiori/dev/newt/blegpio/bin/nrf52_boot/fs/nffs/nffs.a(nffs_cache.o)
 .text.nffs_cache_inode_alloc
                0x0000000000000638       0x28 /Users/briangiori/dev/newt/blegpio/bin/nrf52_boot/fs/nffs/nffs.a(nffs_cache.o)
 .text.nffs_cache_block_alloc
                0x0000000000000660       0x1c /Users/briangiori/dev/newt/blegpio/bin/nrf52_boot/fs/nffs/nffs.a(nffs_cache.o)
 .text.nffs_cache_block_acquire
                0x000000000000067c       0x48 /Users/briangiori/dev/newt/blegpio/bin/nrf52_boot/fs/nffs/nffs.a(nffs_cache.o)
 .text.nffs_cache_inode_range
                0x00000000000006c4       0x1c /Users/briangiori/dev/newt/blegpio/bin/nrf52_boot/fs/nffs/nffs.a(nffs_cache.o)
                0x00000000000006c4                nffs_cache_inode_range
 .text.nffs_cache_inode_delete
                0x00000000000006e0       0x2c /Users/briangiori/dev/newt/blegpio/bin/nrf52_boot/fs/nffs/nffs.a(nffs_cache.o)
                0x00000000000006e0                nffs_cache_inode_delete
 .text.nffs_cache_inode_ensure
                0x000000000000070c       0xa8 /Users/briangiori/dev/newt/blegpio/bin/nrf52_boot/fs/nffs/nffs.a(nffs_cache.o)
                0x000000000000070c                nffs_cache_inode_ensure
 .text.nffs_cache_inode_refresh
                0x00000000000007b4       0x24 /Users/briangiori/dev/newt/blegpio/bin/nrf52_boot/fs/nffs/nffs.a(nffs_cache.o)
                0x00000000000007b4                nffs_cache_inode_refresh
 .text.nffs_cache_insert_block
                0x00000000000007d8       0x24 /Users/briangiori/dev/newt/blegpio/bin/nrf52_boot/fs/nffs/nffs.a(nffs_cache.o)
                0x00000000000007d8                nffs_cache_insert_block
 .text.nffs_cache_seek
                0x00000000000007fc      0x128 /Users/briangiori/dev/newt/blegpio/bin/nrf52_boot/fs/nffs/nffs.a(nffs_cache.o)
                0x00000000000007fc                nffs_cache_seek
 .text.nffs_cache_clear
                0x0000000000000924       0x24 /Users/briangiori/dev/newt/blegpio/bin/nrf52_boot/fs/nffs/nffs.a(nffs_cache.o)
                0x0000000000000924                nffs_cache_clear
 .text.nffs_config_init
                0x0000000000000948       0x44 /Users/briangiori/dev/newt/blegpio/bin/nrf52_boot/fs/nffs/nffs.a(nffs_config.o)
                0x0000000000000948                nffs_config_init
 .text.nffs_dir_open
                0x000000000000098c       0x54 /Users/briangiori/dev/newt/blegpio/bin/nrf52_boot/fs/nffs/nffs.a(nffs_dir.o)
                0x000000000000098c                nffs_dir_open
 .text.nffs_dir_read
                0x00000000000009e0       0x30 /Users/briangiori/dev/newt/blegpio/bin/nrf52_boot/fs/nffs/nffs.a(nffs_dir.o)
                0x00000000000009e0                nffs_dir_read
 .text.nffs_dir_close
                0x0000000000000a10       0x38 /Users/briangiori/dev/newt/blegpio/bin/nrf52_boot/fs/nffs/nffs.a(nffs_dir.o)
                0x0000000000000a10                nffs_dir_close
 .text.nffs_file_new
                0x0000000000000a48       0xec /Users/briangiori/dev/newt/blegpio/bin/nrf52_boot/fs/nffs/nffs.a(nffs_file.o)
                0x0000000000000a48                nffs_file_new
 .text.nffs_file_open
                0x0000000000000b34       0xe0 /Users/briangiori/dev/newt/blegpio/bin/nrf52_boot/fs/nffs/nffs.a(nffs_file.o)
                0x0000000000000b34                nffs_file_open
 .text.nffs_file_seek
                0x0000000000000c14       0x1e /Users/briangiori/dev/newt/blegpio/bin/nrf52_boot/fs/nffs/nffs.a(nffs_file.o)
                0x0000000000000c14                nffs_file_seek
 .text.nffs_file_read
                0x0000000000000c32       0x46 /Users/briangiori/dev/newt/blegpio/bin/nrf52_boot/fs/nffs/nffs.a(nffs_file.o)
                0x0000000000000c32                nffs_file_read
 .text.nffs_file_close
                0x0000000000000c78       0x24 /Users/briangiori/dev/newt/blegpio/bin/nrf52_boot/fs/nffs/nffs.a(nffs_file.o)
                0x0000000000000c78                nffs_file_close
 .text.nffs_flash_read
                0x0000000000000c9c       0x4c /Users/briangiori/dev/newt/blegpio/bin/nrf52_boot/fs/nffs/nffs.a(nffs_flash.o)
                0x0000000000000c9c                nffs_flash_read
 .text.nffs_flash_write
                0x0000000000000ce8       0x54 /Users/briangiori/dev/newt/blegpio/bin/nrf52_boot/fs/nffs/nffs.a(nffs_flash.o)
                0x0000000000000ce8                nffs_flash_write
 .text.nffs_flash_copy
                0x0000000000000d3c       0x4c /Users/briangiori/dev/newt/blegpio/bin/nrf52_boot/fs/nffs/nffs.a(nffs_flash.o)
                0x0000000000000d3c                nffs_flash_copy
 .text.nffs_flash_loc
                0x0000000000000d88       0x20 /Users/briangiori/dev/newt/blegpio/bin/nrf52_boot/fs/nffs/nffs.a(nffs_flash.o)
                0x0000000000000d88                nffs_flash_loc
 .text.nffs_flash_loc_expand
                0x0000000000000da8        0xc /Users/briangiori/dev/newt/blegpio/bin/nrf52_boot/fs/nffs/nffs.a(nffs_flash.o)
                0x0000000000000da8                nffs_flash_loc_expand
 .text.nffs_format_area
                0x0000000000000db4       0x54 /Users/briangiori/dev/newt/blegpio/bin/nrf52_boot/fs/nffs/nffs.a(nffs_format.o)
                0x0000000000000db4                nffs_format_area
 .text.nffs_format_from_scratch_area
                0x0000000000000e08       0x64 /Users/briangiori/dev/newt/blegpio/bin/nrf52_boot/fs/nffs/nffs.a(nffs_format.o)
                0x0000000000000e08                nffs_format_from_scratch_area
 .text.nffs_hash_find_reorder
                0x0000000000000e6c       0x34 /Users/briangiori/dev/newt/blegpio/bin/nrf52_boot/fs/nffs/nffs.a(nffs_hash.o)
 .text.nffs_hash_id_is_dir
                0x0000000000000ea0        0xc /Users/briangiori/dev/newt/blegpio/bin/nrf52_boot/fs/nffs/nffs.a(nffs_hash.o)
                0x0000000000000ea0                nffs_hash_id_is_dir
 .text.nffs_hash_id_is_file
                0x0000000000000eac       0x10 /Users/briangiori/dev/newt/blegpio/bin/nrf52_boot/fs/nffs/nffs.a(nffs_hash.o)
                0x0000000000000eac                nffs_hash_id_is_file
 .text.nffs_hash_id_is_inode
                0x0000000000000ebc        0x6 /Users/briangiori/dev/newt/blegpio/bin/nrf52_boot/fs/nffs/nffs.a(nffs_hash.o)
                0x0000000000000ebc                nffs_hash_id_is_inode
 *fill*         0x0000000000000ec2        0x2 
 .text.nffs_hash_id_is_block
                0x0000000000000ec4       0x14 /Users/briangiori/dev/newt/blegpio/bin/nrf52_boot/fs/nffs/nffs.a(nffs_hash.o)
                0x0000000000000ec4                nffs_hash_id_is_block
 .text.nffs_hash_find
                0x0000000000000ed8       0x20 /Users/briangiori/dev/newt/blegpio/bin/nrf52_boot/fs/nffs/nffs.a(nffs_hash.o)
                0x0000000000000ed8                nffs_hash_find
 .text.nffs_hash_find_inode
                0x0000000000000ef8       0x24 /Users/briangiori/dev/newt/blegpio/bin/nrf52_boot/fs/nffs/nffs.a(nffs_hash.o)
                0x0000000000000ef8                nffs_hash_find_inode
 .text.nffs_hash_find_block
                0x0000000000000f1c       0x28 /Users/briangiori/dev/newt/blegpio/bin/nrf52_boot/fs/nffs/nffs.a(nffs_hash.o)
                0x0000000000000f1c                nffs_hash_find_block
 .text.nffs_hash_entry_is_dummy
                0x0000000000000f44       0x14 /Users/briangiori/dev/newt/blegpio/bin/nrf52_boot/fs/nffs/nffs.a(nffs_hash.o)
                0x0000000000000f44                nffs_hash_entry_is_dummy
 .text.nffs_hash_id_is_dummy
                0x0000000000000f58       0x1a /Users/briangiori/dev/newt/blegpio/bin/nrf52_boot/fs/nffs/nffs.a(nffs_hash.o)
                0x0000000000000f58                nffs_hash_id_is_dummy
 *fill*         0x0000000000000f72        0x2 
 .text.nffs_hash_insert
                0x0000000000000f74       0x68 /Users/briangiori/dev/newt/blegpio/bin/nrf52_boot/fs/nffs/nffs.a(nffs_hash.o)
                0x0000000000000f74                nffs_hash_insert
 .text.nffs_hash_remove
                0x0000000000000fdc       0x94 /Users/briangiori/dev/newt/blegpio/bin/nrf52_boot/fs/nffs/nffs.a(nffs_hash.o)
                0x0000000000000fdc                nffs_hash_remove
 .text.nffs_hash_init
                0x0000000000001070       0x30 /Users/briangiori/dev/newt/blegpio/bin/nrf52_boot/fs/nffs/nffs.a(nffs_hash.o)
                0x0000000000001070                nffs_hash_init
 .text.nffs_inode_read_filename_chunk
                0x00000000000010a0       0x48 /Users/briangiori/dev/newt/blegpio/bin/nrf52_boot/fs/nffs/nffs.a(nffs_inode.o)
 .text.nffs_inode_entry_alloc
                0x00000000000010e8       0x1c /Users/briangiori/dev/newt/blegpio/bin/nrf52_boot/fs/nffs/nffs.a(nffs_inode.o)
                0x00000000000010e8                nffs_inode_entry_alloc
 .text.nffs_inode_entry_free
                0x0000000000001104       0x30 /Users/briangiori/dev/newt/blegpio/bin/nrf52_boot/fs/nffs/nffs.a(nffs_inode.o)
                0x0000000000001104                nffs_inode_entry_free
 .text.nffs_inode_dec_refcnt_priv
                0x0000000000001134       0xa8 /Users/briangiori/dev/newt/blegpio/bin/nrf52_boot/fs/nffs/nffs.a(nffs_inode.o)
 .text.nffs_inode_entry_reserve
                0x00000000000011dc       0x1a /Users/briangiori/dev/newt/blegpio/bin/nrf52_boot/fs/nffs/nffs.a(nffs_inode.o)
                0x00000000000011dc                nffs_inode_entry_reserve
 .text.nffs_inode_read_disk
                0x00000000000011f6       0x1c /Users/briangiori/dev/newt/blegpio/bin/nrf52_boot/fs/nffs/nffs.a(nffs_inode.o)
                0x00000000000011f6                nffs_inode_read_disk
 .text.nffs_inode_write_disk
                0x0000000000001212       0x34 /Users/briangiori/dev/newt/blegpio/bin/nrf52_boot/fs/nffs/nffs.a(nffs_inode.o)
                0x0000000000001212                nffs_inode_write_disk
 *fill*         0x0000000000001246        0x2 
 .text.nffs_inode_calc_data_length
                0x0000000000001248       0x44 /Users/briangiori/dev/newt/blegpio/bin/nrf52_boot/fs/nffs/nffs.a(nffs_inode.o)
                0x0000000000001248                nffs_inode_calc_data_length
 .text.nffs_inode_data_len
                0x000000000000128c       0x1a /Users/briangiori/dev/newt/blegpio/bin/nrf52_boot/fs/nffs/nffs.a(nffs_inode.o)
                0x000000000000128c                nffs_inode_data_len
 .text.nffs_inode_parent_id
                0x00000000000012a6        0xe /Users/briangiori/dev/newt/blegpio/bin/nrf52_boot/fs/nffs/nffs.a(nffs_inode.o)
                0x00000000000012a6                nffs_inode_parent_id
 .text.nffs_inode_inc_refcnt
                0x00000000000012b4       0x20 /Users/briangiori/dev/newt/blegpio/bin/nrf52_boot/fs/nffs/nffs.a(nffs_inode.o)
                0x00000000000012b4                nffs_inode_inc_refcnt
 .text.nffs_inode_dec_refcnt
                0x00000000000012d4        0x6 /Users/briangiori/dev/newt/blegpio/bin/nrf52_boot/fs/nffs/nffs.a(nffs_inode.o)
                0x00000000000012d4                nffs_inode_dec_refcnt
 *fill*         0x00000000000012da        0x2 
 .text.nffs_inode_delete_from_disk
                0x00000000000012dc       0x88 /Users/briangiori/dev/newt/blegpio/bin/nrf52_boot/fs/nffs/nffs.a(nffs_inode.o)
                0x00000000000012dc                nffs_inode_delete_from_disk
 .text.nffs_inode_remove_child
                0x0000000000001364       0x70 /Users/briangiori/dev/newt/blegpio/bin/nrf52_boot/fs/nffs/nffs.a(nffs_inode.o)
                0x0000000000001364                nffs_inode_remove_child
 .text.nffs_inode_unlink_from_ram_priv
                0x00000000000013d4       0xa4 /Users/briangiori/dev/newt/blegpio/bin/nrf52_boot/fs/nffs/nffs.a(nffs_inode.o)
 .text.nffs_inode_filename_cmp_ram
                0x0000000000001478       0x74 /Users/briangiori/dev/newt/blegpio/bin/nrf52_boot/fs/nffs/nffs.a(nffs_inode.o)
                0x0000000000001478                nffs_inode_filename_cmp_ram
 .text.nffs_inode_filename_cmp_flash
                0x00000000000014ec       0x8c /Users/briangiori/dev/newt/blegpio/bin/nrf52_boot/fs/nffs/nffs.a(nffs_inode.o)
                0x00000000000014ec                nffs_inode_filename_cmp_flash
 .text.nffs_inode_read
                0x0000000000001578       0xa2 /Users/briangiori/dev/newt/blegpio/bin/nrf52_boot/fs/nffs/nffs.a(nffs_inode.o)
                0x0000000000001578                nffs_inode_read
 .text.nffs_inode_unlink_from_ram
                0x000000000000161a        0x8 /Users/briangiori/dev/newt/blegpio/bin/nrf52_boot/fs/nffs/nffs.a(nffs_inode.o)
                0x000000000000161a                nffs_inode_unlink_from_ram
 .text.nffs_inode_unlink_from_ram_corrupt_ok
                0x0000000000001622        0x8 /Users/briangiori/dev/newt/blegpio/bin/nrf52_boot/fs/nffs/nffs.a(nffs_inode.o)
                0x0000000000001622                nffs_inode_unlink_from_ram_corrupt_ok
 .text.nffs_inode_unlink
                0x000000000000162a       0x18 /Users/briangiori/dev/newt/blegpio/bin/nrf52_boot/fs/nffs/nffs.a(nffs_inode.o)
                0x000000000000162a                nffs_inode_unlink
 *fill*         0x0000000000001642        0x2 
 .text.nffs_inode_is_dummy
                0x0000000000001644       0x34 /Users/briangiori/dev/newt/blegpio/bin/nrf52_boot/fs/nffs/nffs.a(nffs_inode.o)
                0x0000000000001644                nffs_inode_is_dummy
 .text.nffs_inode_from_entry
                0x0000000000001678       0x9a /Users/briangiori/dev/newt/blegpio/bin/nrf52_boot/fs/nffs/nffs.a(nffs_inode.o)
                0x0000000000001678                nffs_inode_from_entry
 .text.nffs_inode_read_filename
                0x0000000000001712       0x32 /Users/briangiori/dev/newt/blegpio/bin/nrf52_boot/fs/nffs/nffs.a(nffs_inode.o)
                0x0000000000001712                nffs_inode_read_filename
 .text.nffs_inode_add_child
                0x0000000000001744       0x90 /Users/briangiori/dev/newt/blegpio/bin/nrf52_boot/fs/nffs/nffs.a(nffs_inode.o)
                0x0000000000001744                nffs_inode_add_child
 .text.nffs_inode_rename
                0x00000000000017d4       0xfc /Users/briangiori/dev/newt/blegpio/bin/nrf52_boot/fs/nffs/nffs.a(nffs_inode.o)
                0x00000000000017d4                nffs_inode_rename
 .text.nffs_inode_update
                0x00000000000018d0       0xe8 /Users/briangiori/dev/newt/blegpio/bin/nrf52_boot/fs/nffs/nffs.a(nffs_inode.o)
                0x00000000000018d0                nffs_inode_update
 .text.nffs_inode_is_deleted
                0x00000000000019b8       0x20 /Users/briangiori/dev/newt/blegpio/bin/nrf52_boot/fs/nffs/nffs.a(nffs_inode.o)
                0x00000000000019b8                nffs_inode_is_deleted
 .text.nffs_inode_setflags
                0x00000000000019d8        0xa /Users/briangiori/dev/newt/blegpio/bin/nrf52_boot/fs/nffs/nffs.a(nffs_inode.o)
                0x00000000000019d8                nffs_inode_setflags
 .text.nffs_inode_unsetflags
                0x00000000000019e2        0xc /Users/briangiori/dev/newt/blegpio/bin/nrf52_boot/fs/nffs/nffs.a(nffs_inode.o)
                0x00000000000019e2                nffs_inode_unsetflags
 .text.nffs_inode_getflags
                0x00000000000019ee        0x6 /Users/briangiori/dev/newt/blegpio/bin/nrf52_boot/fs/nffs/nffs.a(nffs_inode.o)
                0x00000000000019ee                nffs_inode_getflags
 .text.nffs_misc_validate_root_dir
                0x00000000000019f4       0x30 /Users/briangiori/dev/newt/blegpio/bin/nrf52_boot/fs/nffs/nffs.a(nffs_misc.o)
                0x00000000000019f4                nffs_misc_validate_root_dir
 .text.nffs_misc_validate_scratch
                0x0000000000001a24       0x40 /Users/briangiori/dev/newt/blegpio/bin/nrf52_boot/fs/nffs/nffs.a(nffs_misc.o)
                0x0000000000001a24                nffs_misc_validate_scratch
 .text.nffs_misc_gc_if_oom
                0x0000000000001a64       0x40 /Users/briangiori/dev/newt/blegpio/bin/nrf52_boot/fs/nffs/nffs.a(nffs_misc.o)
                0x0000000000001a64                nffs_misc_gc_if_oom
 .text.nffs_misc_reserve_space
                0x0000000000001aa4       0x8c /Users/briangiori/dev/newt/blegpio/bin/nrf52_boot/fs/nffs/nffs.a(nffs_misc.o)
                0x0000000000001aa4                nffs_misc_reserve_space
 .text.nffs_misc_set_num_areas
                0x0000000000001b30       0x30 /Users/briangiori/dev/newt/blegpio/bin/nrf52_boot/fs/nffs/nffs.a(nffs_misc.o)
                0x0000000000001b30                nffs_misc_set_num_areas
 .text.nffs_misc_set_max_block_data_len
                0x0000000000001b60       0x60 /Users/briangiori/dev/newt/blegpio/bin/nrf52_boot/fs/nffs/nffs.a(nffs_misc.o)
                0x0000000000001b60                nffs_misc_set_max_block_data_len
 .text.nffs_misc_create_lost_found_dir
                0x0000000000001bc0       0x28 /Users/briangiori/dev/newt/blegpio/bin/nrf52_boot/fs/nffs/nffs.a(nffs_misc.o)
                0x0000000000001bc0                nffs_misc_create_lost_found_dir
 .text.nffs_misc_reset
                0x0000000000001be8      0x138 /Users/briangiori/dev/newt/blegpio/bin/nrf52_boot/fs/nffs/nffs.a(nffs_misc.o)
                0x0000000000001be8                nffs_misc_reset
 .text.nffs_misc_ready
                0x0000000000001d20       0x10 /Users/briangiori/dev/newt/blegpio/bin/nrf52_boot/fs/nffs/nffs.a(nffs_misc.o)
                0x0000000000001d20                nffs_misc_ready
 .text.nffs_path_find_child.isra.0
                0x0000000000001d30       0x3e /Users/briangiori/dev/newt/blegpio/bin/nrf52_boot/fs/nffs/nffs.a(nffs_path.o)
 .text.nffs_path_parse_next
                0x0000000000001d6e       0x56 /Users/briangiori/dev/newt/blegpio/bin/nrf52_boot/fs/nffs/nffs.a(nffs_path.o)
                0x0000000000001d6e                nffs_path_parse_next
 .text.nffs_path_parser_new
                0x0000000000001dc4        0xa /Users/briangiori/dev/newt/blegpio/bin/nrf52_boot/fs/nffs/nffs.a(nffs_path.o)
                0x0000000000001dc4                nffs_path_parser_new
 *fill*         0x0000000000001dce        0x2 
 .text.nffs_path_find
                0x0000000000001dd0       0x70 /Users/briangiori/dev/newt/blegpio/bin/nrf52_boot/fs/nffs/nffs.a(nffs_path.o)
                0x0000000000001dd0                nffs_path_find
 .text.nffs_path_find_inode_entry
                0x0000000000001e40       0x16 /Users/briangiori/dev/newt/blegpio/bin/nrf52_boot/fs/nffs/nffs.a(nffs_path.o)
                0x0000000000001e40                nffs_path_find_inode_entry
 .text.nffs_path_unlink
                0x0000000000001e56       0x20 /Users/briangiori/dev/newt/blegpio/bin/nrf52_boot/fs/nffs/nffs.a(nffs_path.o)
                0x0000000000001e56                nffs_path_unlink
 *fill*         0x0000000000001e76        0x2 
 .text.nffs_path_rename
                0x0000000000001e78       0xa0 /Users/briangiori/dev/newt/blegpio/bin/nrf52_boot/fs/nffs/nffs.a(nffs_path.o)
                0x0000000000001e78                nffs_path_rename
 .text.nffs_path_new_dir
                0x0000000000001f18       0x4e /Users/briangiori/dev/newt/blegpio/bin/nrf52_boot/fs/nffs/nffs.a(nffs_path.o)
                0x0000000000001f18                nffs_path_new_dir
 .text.nffs_restore_dummy_inode
                0x0000000000001f66       0x38 /Users/briangiori/dev/newt/blegpio/bin/nrf52_boot/fs/nffs/nffs.a(nffs_restore.o)
 *fill*         0x0000000000001f9e        0x2 
 .text.nffs_restore_area_contents
                0x0000000000001fa0      0x460 /Users/briangiori/dev/newt/blegpio/bin/nrf52_boot/fs/nffs/nffs.a(nffs_restore.o)
 .text.nffs_restore_sweep
                0x0000000000002400      0x1e8 /Users/briangiori/dev/newt/blegpio/bin/nrf52_boot/fs/nffs/nffs.a(nffs_restore.o)
                0x0000000000002400                nffs_restore_sweep
 .text.nffs_restore_full
                0x00000000000025e8      0x194 /Users/briangiori/dev/newt/blegpio/bin/nrf52_boot/fs/nffs/nffs.a(nffs_restore.o)
                0x00000000000025e8                nffs_restore_full
 .text.nffs_write_to_file
                0x000000000000277c      0x3a0 /Users/briangiori/dev/newt/blegpio/bin/nrf52_boot/fs/nffs/nffs.a(nffs_write.o)
                0x000000000000277c                nffs_write_to_file
 .text.nffs_area_magic_is_set
                0x0000000000002b1c       0x38 /Users/briangiori/dev/newt/blegpio/bin/nrf52_boot/fs/nffs/nffs.a(nffs_area.o)
                0x0000000000002b1c                nffs_area_magic_is_set
 .text.nffs_area_is_scratch
                0x0000000000002b54       0x16 /Users/briangiori/dev/newt/blegpio/bin/nrf52_boot/fs/nffs/nffs.a(nffs_area.o)
                0x0000000000002b54                nffs_area_is_scratch
 .text.nffs_area_is_current_version
                0x0000000000002b6a        0xa /Users/briangiori/dev/newt/blegpio/bin/nrf52_boot/fs/nffs/nffs.a(nffs_area.o)
                0x0000000000002b6a                nffs_area_is_current_version
 .text.nffs_area_to_disk
                0x0000000000002b74       0x40 /Users/briangiori/dev/newt/blegpio/bin/nrf52_boot/fs/nffs/nffs.a(nffs_area.o)
                0x0000000000002b74                nffs_area_to_disk
 .text.nffs_area_free_space
                0x0000000000002bb4        0x8 /Users/briangiori/dev/newt/blegpio/bin/nrf52_boot/fs/nffs/nffs.a(nffs_area.o)
                0x0000000000002bb4                nffs_area_free_space
 .text.nffs_area_find_corrupt_scratch
                0x0000000000002bbc       0x68 /Users/briangiori/dev/newt/blegpio/bin/nrf52_boot/fs/nffs/nffs.a(nffs_area.o)
                0x0000000000002bbc                nffs_area_find_corrupt_scratch
 .text.nffs_block_entry_alloc
                0x0000000000002c24       0x1c /Users/briangiori/dev/newt/blegpio/bin/nrf52_boot/fs/nffs/nffs.a(nffs_block.o)
                0x0000000000002c24                nffs_block_entry_alloc
 .text.nffs_block_entry_free
                0x0000000000002c40       0x2c /Users/briangiori/dev/newt/blegpio/bin/nrf52_boot/fs/nffs/nffs.a(nffs_block.o)
                0x0000000000002c40                nffs_block_entry_free
 .text.nffs_block_entry_reserve
                0x0000000000002c6c       0x1a /Users/briangiori/dev/newt/blegpio/bin/nrf52_boot/fs/nffs/nffs.a(nffs_block.o)
                0x0000000000002c6c                nffs_block_entry_reserve
 .text.nffs_block_read_disk
                0x0000000000002c86       0x1c /Users/briangiori/dev/newt/blegpio/bin/nrf52_boot/fs/nffs/nffs.a(nffs_block.o)
                0x0000000000002c86                nffs_block_read_disk
 .text.nffs_block_write_disk
                0x0000000000002ca2       0x54 /Users/briangiori/dev/newt/blegpio/bin/nrf52_boot/fs/nffs/nffs.a(nffs_block.o)
                0x0000000000002ca2                nffs_block_write_disk
 *fill*         0x0000000000002cf6        0x2 
 .text.nffs_block_to_disk
                0x0000000000002cf8       0x38 /Users/briangiori/dev/newt/blegpio/bin/nrf52_boot/fs/nffs/nffs.a(nffs_block.o)
                0x0000000000002cf8                nffs_block_to_disk
 .text.nffs_block_from_hash_entry_no_ptrs
                0x0000000000002d30       0x60 /Users/briangiori/dev/newt/blegpio/bin/nrf52_boot/fs/nffs/nffs.a(nffs_block.o)
                0x0000000000002d30                nffs_block_from_hash_entry_no_ptrs
 .text.nffs_block_read_data
                0x0000000000002d90       0x2e /Users/briangiori/dev/newt/blegpio/bin/nrf52_boot/fs/nffs/nffs.a(nffs_block.o)
                0x0000000000002d90                nffs_block_read_data
 .text.nffs_block_is_dummy
                0x0000000000002dbe       0x14 /Users/briangiori/dev/newt/blegpio/bin/nrf52_boot/fs/nffs/nffs.a(nffs_block.o)
                0x0000000000002dbe                nffs_block_is_dummy
 *fill*         0x0000000000002dd2        0x2 
 .text.nffs_block_from_hash_entry
                0x0000000000002dd4       0x8c /Users/briangiori/dev/newt/blegpio/bin/nrf52_boot/fs/nffs/nffs.a(nffs_block.o)
                0x0000000000002dd4                nffs_block_from_hash_entry
 .text.nffs_block_delete_from_ram
                0x0000000000002e60       0x4a /Users/briangiori/dev/newt/blegpio/bin/nrf52_boot/fs/nffs/nffs.a(nffs_block.o)
                0x0000000000002e60                nffs_block_delete_from_ram
 *fill*         0x0000000000002eaa        0x2 
 .text.nffs_crc_flash
                0x0000000000002eac       0x48 /Users/briangiori/dev/newt/blegpio/bin/nrf52_boot/fs/nffs/nffs.a(nffs_crc.o)
                0x0000000000002eac                nffs_crc_flash
 .text.nffs_crc_disk_block_hdr
                0x0000000000002ef4        0xa /Users/briangiori/dev/newt/blegpio/bin/nrf52_boot/fs/nffs/nffs.a(nffs_crc.o)
                0x0000000000002ef4                nffs_crc_disk_block_hdr
 .text.nffs_crc_disk_block_validate
                0x0000000000002efe       0x34 /Users/briangiori/dev/newt/blegpio/bin/nrf52_boot/fs/nffs/nffs.a(nffs_crc.o)
                0x0000000000002efe                nffs_crc_disk_block_validate
 .text.nffs_crc_disk_block_fill
                0x0000000000002f32       0x16 /Users/briangiori/dev/newt/blegpio/bin/nrf52_boot/fs/nffs/nffs.a(nffs_crc.o)
                0x0000000000002f32                nffs_crc_disk_block_fill
 .text.nffs_crc_disk_inode_validate
                0x0000000000002f48       0x38 /Users/briangiori/dev/newt/blegpio/bin/nrf52_boot/fs/nffs/nffs.a(nffs_crc.o)
                0x0000000000002f48                nffs_crc_disk_inode_validate
 .text.nffs_crc_disk_inode_fill
                0x0000000000002f80       0x1c /Users/briangiori/dev/newt/blegpio/bin/nrf52_boot/fs/nffs/nffs.a(nffs_crc.o)
                0x0000000000002f80                nffs_crc_disk_inode_fill
 .text.nffs_gc_copy_object.isra.0
                0x0000000000002f9c       0x48 /Users/briangiori/dev/newt/blegpio/bin/nrf52_boot/fs/nffs/nffs.a(nffs_gc.o)
 .text.nffs_gc_block_chain_copy
                0x0000000000002fe4       0x50 /Users/briangiori/dev/newt/blegpio/bin/nrf52_boot/fs/nffs/nffs.a(nffs_gc.o)
 .text.nffs_gc_block_chain
                0x0000000000003034      0x16c /Users/briangiori/dev/newt/blegpio/bin/nrf52_boot/fs/nffs/nffs.a(nffs_gc.o)
 .text.nffs_gc  0x00000000000031a0      0x218 /Users/briangiori/dev/newt/blegpio/bin/nrf52_boot/fs/nffs/nffs.a(nffs_gc.o)
                0x00000000000031a0                nffs_gc
 .text.nffs_gc_until
                0x00000000000033b8       0x40 /Users/briangiori/dev/newt/blegpio/bin/nrf52_boot/fs/nffs/nffs.a(nffs_gc.o)
                0x00000000000033b8                nffs_gc_until
 .text          0x00000000000033f8       0x44 /Users/briangiori/dev/newt/blegpio/bin/nrf52_boot/hw/bsp/nrf52dk/nrf52dk.a(gcc_startup_nrf52.o)
                0x00000000000033f8                Reset_Handler
                0x0000000000003428                NMI_Handler
                0x000000000000342a                HardFault_Handler
                0x000000000000342c                MemoryManagement_Handler
                0x000000000000342e                BusFault_Handler
                0x0000000000003430                UsageFault_Handler
                0x0000000000003438                POWER_CLOCK_IRQHandler
                0x0000000000003438                RADIO_IRQHandler
                0x0000000000003438                PDM_IRQHandler
                0x0000000000003438                TEMP_IRQHandler
                0x0000000000003438                QDEC_IRQHandler
                0x0000000000003438                TIMER3_IRQHandler
                0x0000000000003438                SPIM0_SPIS0_TWIM0_TWIS0_SPI0_TWI0_IRQHandler
                0x0000000000003438                UARTE0_UART0_IRQHandler
                0x0000000000003438                TIMER4_IRQHandler
                0x0000000000003438                I2S_IRQHandler
                0x0000000000003438                SWI4_EGU4_IRQHandler
                0x0000000000003438                TIMER0_IRQHandler
                0x0000000000003438                TIMER1_IRQHandler
                0x0000000000003438                PWM2_IRQHandler
                0x0000000000003438                ECB_IRQHandler
                0x0000000000003438                SPIM1_SPIS1_TWIM1_TWIS1_SPI1_TWI1_IRQHandler
                0x0000000000003438                Default_Handler
                0x0000000000003438                SAADC_IRQHandler
                0x0000000000003438                CCM_AAR_IRQHandler
                0x0000000000003438                WDT_IRQHandler
                0x0000000000003438                SWI5_EGU5_IRQHandler
                0x0000000000003438                RNG_IRQHandler
                0x0000000000003438                RTC2_IRQHandler
                0x0000000000003438                PWM0_IRQHandler
                0x0000000000003438                SWI3_EGU3_IRQHandler
                0x0000000000003438                RTC1_IRQHandler
                0x0000000000003438                SWI1_EGU1_IRQHandler
                0x0000000000003438                SPIM2_SPIS2_SPI2_IRQHandler
                0x0000000000003438                NFCT_IRQHandler
                0x0000000000003438                MWU_IRQHandler
                0x0000000000003438                TIMER2_IRQHandler
                0x0000000000003438                COMP_LPCOMP_IRQHandler
                0x0000000000003438                RTC0_IRQHandler
                0x0000000000003438                SWI0_EGU0_IRQHandler
                0x0000000000003438                SWI2_EGU2_IRQHandler
                0x0000000000003438                GPIOTE_IRQHandler
                0x0000000000003438                PWM1_IRQHandler
 .text.SystemInit
                0x000000000000343c       0xc0 /Users/briangiori/dev/newt/blegpio/bin/nrf52_boot/hw/bsp/nrf52dk/nrf52dk.a(system_nrf52.o)
                0x000000000000343c                SystemInit
 .text.flash_area_init
                0x00000000000034fc       0x14 /Users/briangiori/dev/newt/blegpio/bin/nrf52_boot/hw/hal/hal.a(flash_map.o)
                0x00000000000034fc                flash_area_init
 .text.flash_area_to_sectors
                0x0000000000003510       0x7c /Users/briangiori/dev/newt/blegpio/bin/nrf52_boot/hw/hal/hal.a(flash_map.o)
                0x0000000000003510                flash_area_to_sectors
 .text.flash_area_to_nffs_desc
                0x000000000000358c      0x118 /Users/briangiori/dev/newt/blegpio/bin/nrf52_boot/hw/hal/hal.a(flash_map.o)
                0x000000000000358c                flash_area_to_nffs_desc
 .text.hal_flash_check_addr
                0x00000000000036a4       0x1c /Users/briangiori/dev/newt/blegpio/bin/nrf52_boot/hw/hal/hal.a(hal_flash.o)
 .text.hal_flash_init
                0x00000000000036c0       0x24 /Users/briangiori/dev/newt/blegpio/bin/nrf52_boot/hw/hal/hal.a(hal_flash.o)
                0x00000000000036c0                hal_flash_init
 .text.hal_flash_read
                0x00000000000036e4       0x3c /Users/briangiori/dev/newt/blegpio/bin/nrf52_boot/hw/hal/hal.a(hal_flash.o)
                0x00000000000036e4                hal_flash_read
 .text.hal_flash_write
                0x0000000000003720       0x3c /Users/briangiori/dev/newt/blegpio/bin/nrf52_boot/hw/hal/hal.a(hal_flash.o)
                0x0000000000003720                hal_flash_write
 .text.hal_flash_erase
                0x000000000000375c       0x80 /Users/briangiori/dev/newt/blegpio/bin/nrf52_boot/hw/hal/hal.a(hal_flash.o)
                0x000000000000375c                hal_flash_erase
 .text.system_start
                0x00000000000037dc        0xa /Users/briangiori/dev/newt/blegpio/bin/nrf52_boot/hw/mcu/nordic/nrf52xxx/nrf52xxx.a(hal_system_start.o)
                0x00000000000037dc                system_start
 .text.exit     0x00000000000037e6        0x6 /Users/briangiori/dev/newt/blegpio/bin/nrf52_boot/libs/baselibc/baselibc.a(inline.o)
                0x00000000000037e6                exit
 .text.malloc_lock_nop
                0x00000000000037ec        0x4 /Users/briangiori/dev/newt/blegpio/bin/nrf52_boot/libs/baselibc/baselibc.a(malloc.o)
 .text.malloc_unlock_nop
                0x00000000000037f0        0x2 /Users/briangiori/dev/newt/blegpio/bin/nrf52_boot/libs/baselibc/baselibc.a(malloc.o)
 *fill*         0x00000000000037f2        0x2 
 .text.__free_block
                0x00000000000037f4       0x60 /Users/briangiori/dev/newt/blegpio/bin/nrf52_boot/libs/baselibc/baselibc.a(malloc.o)
 .text.add_malloc_block
                0x0000000000003854       0x50 /Users/briangiori/dev/newt/blegpio/bin/nrf52_boot/libs/baselibc/baselibc.a(malloc.o)
                0x0000000000003854                add_malloc_block
 .text.malloc   0x00000000000038a4       0x94 /Users/briangiori/dev/newt/blegpio/bin/nrf52_boot/libs/baselibc/baselibc.a(malloc.o)
                0x00000000000038a4                malloc
 .text.free     0x0000000000003938       0x2c /Users/briangiori/dev/newt/blegpio/bin/nrf52_boot/libs/baselibc/baselibc.a(malloc.o)
                0x0000000000003938                free
 .text.memset   0x0000000000003964       0x10 /Users/briangiori/dev/newt/blegpio/bin/nrf52_boot/libs/baselibc/baselibc.a(memset.o)
                0x0000000000003964                memset
 .text.strchr   0x0000000000003974       0x1a /Users/briangiori/dev/newt/blegpio/bin/nrf52_boot/libs/baselibc/baselibc.a(strchr.o)
                0x0000000000003974                strchr
 .text.strcpy   0x000000000000398e       0x10 /Users/briangiori/dev/newt/blegpio/bin/nrf52_boot/libs/baselibc/baselibc.a(strcpy.o)
                0x000000000000398e                strcpy
 .text.strlen   0x000000000000399e       0x10 /Users/briangiori/dev/newt/blegpio/bin/nrf52_boot/libs/baselibc/baselibc.a(strlen.o)
                0x000000000000399e                strlen
 .text.strncmp  0x00000000000039ae       0x20 /Users/briangiori/dev/newt/blegpio/bin/nrf52_boot/libs/baselibc/baselibc.a(strncmp.o)
                0x00000000000039ae                strncmp
 *fill*         0x00000000000039ce        0x2 
 .text.boot_conf_set
                0x00000000000039d0       0x60 /Users/briangiori/dev/newt/blegpio/bin/nrf52_boot/libs/bootutil/bootutil.a(bootutil_misc.o)
 .text.boot_vect_read_test
                0x0000000000003a30       0x20 /Users/briangiori/dev/newt/blegpio/bin/nrf52_boot/libs/bootutil/bootutil.a(bootutil_misc.o)
                0x0000000000003a30                boot_vect_read_test
 .text.boot_vect_read_main
                0x0000000000003a50       0x20 /Users/briangiori/dev/newt/blegpio/bin/nrf52_boot/libs/bootutil/bootutil.a(bootutil_misc.o)
                0x0000000000003a50                boot_vect_read_main
 .text.boot_vect_write_test
                0x0000000000003a70       0x44 /Users/briangiori/dev/newt/blegpio/bin/nrf52_boot/libs/bootutil/bootutil.a(bootutil_misc.o)
                0x0000000000003a70                boot_vect_write_test
 .text.boot_vect_write_main
                0x0000000000003ab4       0x44 /Users/briangiori/dev/newt/blegpio/bin/nrf52_boot/libs/bootutil/bootutil.a(bootutil_misc.o)
                0x0000000000003ab4                boot_vect_write_main
 .text.boot_read_image_headers
                0x0000000000003af8       0x40 /Users/briangiori/dev/newt/blegpio/bin/nrf52_boot/libs/bootutil/bootutil.a(bootutil_misc.o)
                0x0000000000003af8                boot_read_image_headers
 .text.bootutil_cfg_register
                0x0000000000003b38        0xc /Users/briangiori/dev/newt/blegpio/bin/nrf52_boot/libs/bootutil/bootutil.a(bootutil_misc.o)
                0x0000000000003b38                bootutil_cfg_register
 .text.boot_read_status
                0x0000000000003b44       0x38 /Users/briangiori/dev/newt/blegpio/bin/nrf52_boot/libs/bootutil/bootutil.a(bootutil_misc.o)
                0x0000000000003b44                boot_read_status
 .text.boot_write_status
                0x0000000000003b7c       0x1c /Users/briangiori/dev/newt/blegpio/bin/nrf52_boot/libs/bootutil/bootutil.a(bootutil_misc.o)
                0x0000000000003b7c                boot_write_status
 .text.boot_clear_status
                0x0000000000003b98        0xc /Users/briangiori/dev/newt/blegpio/bin/nrf52_boot/libs/bootutil/bootutil.a(bootutil_misc.o)
                0x0000000000003b98                boot_clear_status
 .text.boot_find_image_slot
                0x0000000000003ba4       0x30 /Users/briangiori/dev/newt/blegpio/bin/nrf52_boot/libs/bootutil/bootutil.a(loader.o)
 .text.boot_image_check
                0x0000000000003bd4       0x44 /Users/briangiori/dev/newt/blegpio/bin/nrf52_boot/libs/bootutil/bootutil.a(loader.o)
 .text.boot_erase_area
                0x0000000000003c18       0x24 /Users/briangiori/dev/newt/blegpio/bin/nrf52_boot/libs/bootutil/bootutil.a(loader.o)
 .text.boot_copy_area
                0x0000000000003c3c       0x74 /Users/briangiori/dev/newt/blegpio/bin/nrf52_boot/libs/bootutil/bootutil.a(loader.o)
 .text.boot_copy_image
                0x0000000000003cb0      0x168 /Users/briangiori/dev/newt/blegpio/bin/nrf52_boot/libs/bootutil/bootutil.a(loader.o)
 .text.boot_go  0x0000000000003e18      0x164 /Users/briangiori/dev/newt/blegpio/bin/nrf52_boot/libs/bootutil/bootutil.a(loader.o)
                0x0000000000003e18                boot_go
 .text.bootutil_img_validate
                0x0000000000003f7c       0xe4 /Users/briangiori/dev/newt/blegpio/bin/nrf52_boot/libs/bootutil/bootutil.a(image_validate.o)
                0x0000000000003f7c                bootutil_img_validate
 .text.NVIC_Relocate
                0x0000000000004060       0x2c /Users/briangiori/dev/newt/blegpio/bin/nrf52_boot/libs/cmsis-core/cmsis-core.a(cmsis_nvic.o)
                0x0000000000004060                NVIC_Relocate
 .text.NVIC_SetVector
                0x000000000000408c       0x14 /Users/briangiori/dev/newt/blegpio/bin/nrf52_boot/libs/cmsis-core/cmsis-core.a(cmsis_nvic.o)
                0x000000000000408c                NVIC_SetVector
 .text.mbedtls_sha256_init
                0x00000000000040a0        0x8 /Users/briangiori/dev/newt/blegpio/bin/nrf52_boot/libs/mbedtls/mbedtls.a(sha256.o)
                0x00000000000040a0                mbedtls_sha256_init
 .text.mbedtls_sha256_starts
                0x00000000000040a8       0xa0 /Users/briangiori/dev/newt/blegpio/bin/nrf52_boot/libs/mbedtls/mbedtls.a(sha256.o)
                0x00000000000040a8                mbedtls_sha256_starts
 .text.mbedtls_sha256_process
                0x0000000000004148      0x6cc /Users/briangiori/dev/newt/blegpio/bin/nrf52_boot/libs/mbedtls/mbedtls.a(sha256.o)
                0x0000000000004148                mbedtls_sha256_process
 .text.mbedtls_sha256_update.part.0
                0x0000000000004814       0x80 /Users/briangiori/dev/newt/blegpio/bin/nrf52_boot/libs/mbedtls/mbedtls.a(sha256.o)
 .text.mbedtls_sha256_update
                0x0000000000004894        0x8 /Users/briangiori/dev/newt/blegpio/bin/nrf52_boot/libs/mbedtls/mbedtls.a(sha256.o)
                0x0000000000004894                mbedtls_sha256_update
 .text.mbedtls_sha256_finish
                0x000000000000489c      0x104 /Users/briangiori/dev/newt/blegpio/bin/nrf52_boot/libs/mbedtls/mbedtls.a(sha256.o)
                0x000000000000489c                mbedtls_sha256_finish
 .text.os_idle_task
                0x00000000000049a0       0x4c /Users/briangiori/dev/newt/blegpio/bin/nrf52_boot/libs/os/os.a(os.o)
                0x00000000000049a0                os_idle_task
 .text.os_init_idle_task
                0x00000000000049ec       0x38 /Users/briangiori/dev/newt/blegpio/bin/nrf52_boot/libs/os/os.a(os.o)
                0x00000000000049ec                os_init_idle_task
 .text.os_init  0x0000000000004a24       0x30 /Users/briangiori/dev/newt/blegpio/bin/nrf52_boot/libs/os/os.a(os.o)
                0x0000000000004a24                os_init
 .text.timer_handler
                0x0000000000004a54        0x6 /Users/briangiori/dev/newt/blegpio/bin/nrf52_boot/libs/os/os.a(os_arch_arm.o)
                0x0000000000004a54                timer_handler
 *fill*         0x0000000000004a5a        0x2 
 .text.os_arch_ctx_sw
                0x0000000000004a5c       0x14 /Users/briangiori/dev/newt/blegpio/bin/nrf52_boot/libs/os/os.a(os_arch_arm.o)
                0x0000000000004a5c                os_arch_ctx_sw
 .text.os_arch_save_sr
                0x0000000000004a70        0xc /Users/briangiori/dev/newt/blegpio/bin/nrf52_boot/libs/os/os.a(os_arch_arm.o)
                0x0000000000004a70                os_arch_save_sr
 .text.os_arch_restore_sr
                0x0000000000004a7c        0x6 /Users/briangiori/dev/newt/blegpio/bin/nrf52_boot/libs/os/os.a(os_arch_arm.o)
                0x0000000000004a7c                os_arch_restore_sr
 .text.os_arch_in_critical
                0x0000000000004a82        0xa /Users/briangiori/dev/newt/blegpio/bin/nrf52_boot/libs/os/os.a(os_arch_arm.o)
                0x0000000000004a82                os_arch_in_critical
 .text.os_arch_task_stack_init
                0x0000000000004a8c       0x3a /Users/briangiori/dev/newt/blegpio/bin/nrf52_boot/libs/os/os.a(os_arch_arm.o)
                0x0000000000004a8c                os_arch_task_stack_init
 *fill*         0x0000000000004ac6        0x2 
 .text.os_arch_init
                0x0000000000004ac8       0x14 /Users/briangiori/dev/newt/blegpio/bin/nrf52_boot/libs/os/os.a(os_arch_arm.o)
                0x0000000000004ac8                os_arch_init
 .text.os_arch_os_init
                0x0000000000004adc       0xa0 /Users/briangiori/dev/newt/blegpio/bin/nrf52_boot/libs/os/os.a(os_arch_arm.o)
                0x0000000000004adc                os_arch_os_init
 .text.os_callout_tick
                0x0000000000004b7c       0x48 /Users/briangiori/dev/newt/blegpio/bin/nrf52_boot/libs/os/os.a(os_callout.o)
                0x0000000000004b7c                os_callout_tick
 .text.os_callout_wakeup_ticks
                0x0000000000004bc4       0x34 /Users/briangiori/dev/newt/blegpio/bin/nrf52_boot/libs/os/os.a(os_callout.o)
                0x0000000000004bc4                os_callout_wakeup_ticks
 .text.os_eventq_put
                0x0000000000004bf8       0x54 /Users/briangiori/dev/newt/blegpio/bin/nrf52_boot/libs/os/os.a(os_eventq.o)
                0x0000000000004bf8                os_eventq_put
 .text.__assert_func
                0x0000000000004c4c       0x24 /Users/briangiori/dev/newt/blegpio/bin/nrf52_boot/libs/os/os.a(os_fault.o)
                0x0000000000004c4c                __assert_func
 .text.os_default_irq
                0x0000000000004c70       0x18 /Users/briangiori/dev/newt/blegpio/bin/nrf52_boot/libs/os/os.a(os_fault.o)
                0x0000000000004c70                os_default_irq
 .text.os_malloc_lock
                0x0000000000004c88       0x30 /Users/briangiori/dev/newt/blegpio/bin/nrf52_boot/libs/os/os.a(os_heap.o)
 .text.os_malloc_unlock
                0x0000000000004cb8       0x2c /Users/briangiori/dev/newt/blegpio/bin/nrf52_boot/libs/os/os.a(os_heap.o)
 .text.os_malloc
                0x0000000000004ce4       0x18 /Users/briangiori/dev/newt/blegpio/bin/nrf52_boot/libs/os/os.a(os_heap.o)
                0x0000000000004ce4                os_malloc
 .text.os_free  0x0000000000004cfc       0x16 /Users/briangiori/dev/newt/blegpio/bin/nrf52_boot/libs/os/os.a(os_heap.o)
                0x0000000000004cfc                os_free
 .text.os_realloc
                0x0000000000004d12       0x1c /Users/briangiori/dev/newt/blegpio/bin/nrf52_boot/libs/os/os.a(os_heap.o)
                0x0000000000004d12                os_realloc
 *fill*         0x0000000000004d2e        0x2 
 .text.os_mempool_init
                0x0000000000004d30       0x68 /Users/briangiori/dev/newt/blegpio/bin/nrf52_boot/libs/os/os.a(os_mempool.o)
                0x0000000000004d30                os_mempool_init
 .text.os_memblock_get
                0x0000000000004d98       0x28 /Users/briangiori/dev/newt/blegpio/bin/nrf52_boot/libs/os/os.a(os_mempool.o)
                0x0000000000004d98                os_memblock_get
 .text.os_memblock_put
                0x0000000000004dc0       0x52 /Users/briangiori/dev/newt/blegpio/bin/nrf52_boot/libs/os/os.a(os_mempool.o)
                0x0000000000004dc0                os_memblock_put
 .text.os_mutex_init
                0x0000000000004e12       0x14 /Users/briangiori/dev/newt/blegpio/bin/nrf52_boot/libs/os/os.a(os_mutex.o)
                0x0000000000004e12                os_mutex_init
 *fill*         0x0000000000004e26        0x2 
 .text.os_mutex_release
                0x0000000000004e28       0x90 /Users/briangiori/dev/newt/blegpio/bin/nrf52_boot/libs/os/os.a(os_mutex.o)
                0x0000000000004e28                os_mutex_release
 .text.os_mutex_pend
                0x0000000000004eb8       0xe0 /Users/briangiori/dev/newt/blegpio/bin/nrf52_boot/libs/os/os.a(os_mutex.o)
                0x0000000000004eb8                os_mutex_pend
 .text.os_sched_insert
                0x0000000000004f98       0x4c /Users/briangiori/dev/newt/blegpio/bin/nrf52_boot/libs/os/os.a(os_sched.o)
                0x0000000000004f98                os_sched_insert
 .text.os_sched_ctx_sw_hook
                0x0000000000004fe4       0x30 /Users/briangiori/dev/newt/blegpio/bin/nrf52_boot/libs/os/os.a(os_sched.o)
                0x0000000000004fe4                os_sched_ctx_sw_hook
 .text.os_sched_get_current_task
                0x0000000000005014        0xc /Users/briangiori/dev/newt/blegpio/bin/nrf52_boot/libs/os/os.a(os_sched.o)
                0x0000000000005014                os_sched_get_current_task
 .text.os_sched
                0x0000000000005020       0x30 /Users/briangiori/dev/newt/blegpio/bin/nrf52_boot/libs/os/os.a(os_sched.o)
                0x0000000000005020                os_sched
 .text.os_sched_sleep
                0x0000000000005050       0x74 /Users/briangiori/dev/newt/blegpio/bin/nrf52_boot/libs/os/os.a(os_sched.o)
                0x0000000000005050                os_sched_sleep
 .text.os_sched_wakeup
                0x00000000000050c4       0x74 /Users/briangiori/dev/newt/blegpio/bin/nrf52_boot/libs/os/os.a(os_sched.o)
                0x00000000000050c4                os_sched_wakeup
 .text.os_sched_os_timer_exp
                0x0000000000005138       0x3c /Users/briangiori/dev/newt/blegpio/bin/nrf52_boot/libs/os/os.a(os_sched.o)
                0x0000000000005138                os_sched_os_timer_exp
 .text.os_sched_wakeup_ticks
                0x0000000000005174       0x3c /Users/briangiori/dev/newt/blegpio/bin/nrf52_boot/libs/os/os.a(os_sched.o)
                0x0000000000005174                os_sched_wakeup_ticks
 .text.os_sched_next_task
                0x00000000000051b0        0xc /Users/briangiori/dev/newt/blegpio/bin/nrf52_boot/libs/os/os.a(os_sched.o)
                0x00000000000051b0                os_sched_next_task
 .text.os_sched_resort
                0x00000000000051bc       0x24 /Users/briangiori/dev/newt/blegpio/bin/nrf52_boot/libs/os/os.a(os_sched.o)
                0x00000000000051bc                os_sched_resort
 .text.os_task_init
                0x00000000000051e0       0xb4 /Users/briangiori/dev/newt/blegpio/bin/nrf52_boot/libs/os/os.a(os_task.o)
                0x00000000000051e0                os_task_init
 .text.os_deltatime
                0x0000000000005294       0x44 /Users/briangiori/dev/newt/blegpio/bin/nrf52_boot/libs/os/os.a(os_time.o)
 .text.os_time_get
                0x00000000000052d8        0xc /Users/briangiori/dev/newt/blegpio/bin/nrf52_boot/libs/os/os.a(os_time.o)
                0x00000000000052d8                os_time_get
 .text.os_time_advance
                0x00000000000052e4       0x70 /Users/briangiori/dev/newt/blegpio/bin/nrf52_boot/libs/os/os.a(os_time.o)
                0x00000000000052e4                os_time_advance
 .text          0x0000000000005354       0xcc /Users/briangiori/dev/newt/blegpio/bin/nrf52_boot/libs/os/os.a(HAL_CM4.o)
                0x0000000000005354                os_set_env
                0x000000000000536a                os_arch_init_task_stack
                0x0000000000005370                SVC_Handler
                0x00000000000053b6                PendSV_Handler
                0x00000000000053e0                SysTick_Handler
                0x00000000000053ec                os_default_irq_asm
 .text.os_sanity_check_list_lock
                0x0000000000005420       0x1c /Users/briangiori/dev/newt/blegpio/bin/nrf52_boot/libs/os/os.a(os_sanity.o)
 .text.os_sanity_check_list_unlock
                0x000000000000543c       0x18 /Users/briangiori/dev/newt/blegpio/bin/nrf52_boot/libs/os/os.a(os_sanity.o)
 .text.os_sanity_check_init
                0x0000000000005454        0xe /Users/briangiori/dev/newt/blegpio/bin/nrf52_boot/libs/os/os.a(os_sanity.o)
                0x0000000000005454                os_sanity_check_init
 *fill*         0x0000000000005462        0x2 
 .text.os_sanity_check_register
                0x0000000000005464       0x20 /Users/briangiori/dev/newt/blegpio/bin/nrf52_boot/libs/os/os.a(os_sanity.o)
                0x0000000000005464                os_sanity_check_register
 .text.crc16_ccitt
                0x0000000000005484       0x28 /Users/briangiori/dev/newt/blegpio/bin/nrf52_boot/libs/util/util.a(crc16.o)
                0x0000000000005484                crc16_ccitt
 .text.conf_init
                0x00000000000054ac       0x14 /Users/briangiori/dev/newt/blegpio/bin/nrf52_boot/sys/config/config.a(config.o)
                0x00000000000054ac                conf_init
 .text.conf_register
                0x00000000000054c0       0x10 /Users/briangiori/dev/newt/blegpio/bin/nrf52_boot/sys/config/config.a(config.o)
                0x00000000000054c0                conf_register
 .text.conf_handler_lookup
                0x00000000000054d0       0x20 /Users/briangiori/dev/newt/blegpio/bin/nrf52_boot/sys/config/config.a(config.o)
                0x00000000000054d0                conf_handler_lookup
 .text.conf_parse_name
                0x00000000000054f0       0x30 /Users/briangiori/dev/newt/blegpio/bin/nrf52_boot/sys/config/config.a(config.o)
                0x00000000000054f0                conf_parse_name
 .text.conf_parse_and_lookup
                0x0000000000005520       0x18 /Users/briangiori/dev/newt/blegpio/bin/nrf52_boot/sys/config/config.a(config.o)
 .text.conf_bytes_from_str
                0x0000000000005538       0x28 /Users/briangiori/dev/newt/blegpio/bin/nrf52_boot/sys/config/config.a(config.o)
                0x0000000000005538                conf_bytes_from_str
 .text.conf_str_from_bytes
                0x0000000000005560       0x20 /Users/briangiori/dev/newt/blegpio/bin/nrf52_boot/sys/config/config.a(config.o)
                0x0000000000005560                conf_str_from_bytes
 .text.conf_set_value
                0x0000000000005580       0x24 /Users/briangiori/dev/newt/blegpio/bin/nrf52_boot/sys/config/config.a(config.o)
                0x0000000000005580                conf_set_value
 .text.conf_commit
                0x00000000000055a4       0x40 /Users/briangiori/dev/newt/blegpio/bin/nrf52_boot/sys/config/config.a(config.o)
                0x00000000000055a4                conf_commit
 .text.conf_file_src
                0x00000000000055e4       0x1c /Users/briangiori/dev/newt/blegpio/bin/nrf52_boot/sys/config/config.a(config_file.o)
                0x00000000000055e4                conf_file_src
 .text.conf_file_dst
                0x0000000000005600       0x1c /Users/briangiori/dev/newt/blegpio/bin/nrf52_boot/sys/config/config.a(config_file.o)
                0x0000000000005600                conf_file_dst
 .text.conf_getnext_line
                0x000000000000561c       0x6a /Users/briangiori/dev/newt/blegpio/bin/nrf52_boot/sys/config/config.a(config_file.o)
                0x000000000000561c                conf_getnext_line
 .text.conf_file_load
                0x0000000000005686       0x60 /Users/briangiori/dev/newt/blegpio/bin/nrf52_boot/sys/config/config.a(config_file.o)
 *fill*         0x00000000000056e6        0x2 
 .text.conf_file_compress
                0x00000000000056e8      0x104 /Users/briangiori/dev/newt/blegpio/bin/nrf52_boot/sys/config/config.a(config_file.o)
                0x00000000000056e8                conf_file_compress
 .text.conf_file_save
                0x00000000000057ec       0x70 /Users/briangiori/dev/newt/blegpio/bin/nrf52_boot/sys/config/config.a(config_file.o)
 .text.conf_line_parse
                0x000000000000585c       0x7a /Users/briangiori/dev/newt/blegpio/bin/nrf52_boot/sys/config/config.a(config_line.o)
                0x000000000000585c                conf_line_parse
 .text.conf_line_make
                0x00000000000058d6       0x5c /Users/briangiori/dev/newt/blegpio/bin/nrf52_boot/sys/config/config.a(config_line.o)
                0x00000000000058d6                conf_line_make
 .text.conf_load_cb
                0x0000000000005932        0x4 /Users/briangiori/dev/newt/blegpio/bin/nrf52_boot/sys/config/config.a(config_store.o)
 .text.conf_dup_check_cb
                0x0000000000005936       0x32 /Users/briangiori/dev/newt/blegpio/bin/nrf52_boot/sys/config/config.a(config_store.o)
 .text.conf_src_register
                0x0000000000005968       0x28 /Users/briangiori/dev/newt/blegpio/bin/nrf52_boot/sys/config/config.a(config_store.o)
                0x0000000000005968                conf_src_register
 .text.conf_dst_register
                0x0000000000005990        0xc /Users/briangiori/dev/newt/blegpio/bin/nrf52_boot/sys/config/config.a(config_store.o)
                0x0000000000005990                conf_dst_register
 .text.conf_load
                0x000000000000599c       0x2c /Users/briangiori/dev/newt/blegpio/bin/nrf52_boot/sys/config/config.a(config_store.o)
                0x000000000000599c                conf_load
 .text.conf_save_one
                0x00000000000059c8       0x48 /Users/briangiori/dev/newt/blegpio/bin/nrf52_boot/sys/config/config.a(config_store.o)
                0x00000000000059c8                conf_save_one
 .text.log_init
                0x0000000000005a10       0x14 /Users/briangiori/dev/newt/blegpio/bin/nrf52_boot/sys/log/log.a(log.o)
                0x0000000000005a10                log_init
 .text.log_register
                0x0000000000005a24       0x18 /Users/briangiori/dev/newt/blegpio/bin/nrf52_boot/sys/log/log.a(log.o)
                0x0000000000005a24                log_register
 .text.log_console_append
                0x0000000000005a3c        0x4 /Users/briangiori/dev/newt/blegpio/bin/nrf52_boot/sys/log/log.a(log_console.o)
 .text.log_console_read
                0x0000000000005a40        0x4 /Users/briangiori/dev/newt/blegpio/bin/nrf52_boot/sys/log/log.a(log_console.o)
 .text.log_console_walk
                0x0000000000005a44        0x4 /Users/briangiori/dev/newt/blegpio/bin/nrf52_boot/sys/log/log.a(log_console.o)
 .text.log_console_flush
                0x0000000000005a48        0x4 /Users/briangiori/dev/newt/blegpio/bin/nrf52_boot/sys/log/log.a(log_console.o)
 .text.log_console_handler_init
                0x0000000000005a4c       0x2c /Users/briangiori/dev/newt/blegpio/bin/nrf52_boot/sys/log/log.a(log_console.o)
                0x0000000000005a4c                log_console_handler_init
 .text.fs_open  0x0000000000005a78        0xc /Users/briangiori/dev/newt/blegpio/bin/nrf52_boot/fs/fs/fs.a(fs_file.o)
                0x0000000000005a78                fs_open
 .text.fs_close
                0x0000000000005a84        0xc /Users/briangiori/dev/newt/blegpio/bin/nrf52_boot/fs/fs/fs.a(fs_file.o)
                0x0000000000005a84                fs_close
 .text.fs_read  0x0000000000005a90       0x14 /Users/briangiori/dev/newt/blegpio/bin/nrf52_boot/fs/fs/fs.a(fs_file.o)
                0x0000000000005a90                fs_read
 .text.fs_write
                0x0000000000005aa4        0xc /Users/briangiori/dev/newt/blegpio/bin/nrf52_boot/fs/fs/fs.a(fs_file.o)
                0x0000000000005aa4                fs_write
 .text.fs_seek  0x0000000000005ab0        0xc /Users/briangiori/dev/newt/blegpio/bin/nrf52_boot/fs/fs/fs.a(fs_file.o)
                0x0000000000005ab0                fs_seek
 .text.fs_unlink
                0x0000000000005abc        0xc /Users/briangiori/dev/newt/blegpio/bin/nrf52_boot/fs/fs/fs.a(fs_file.o)
                0x0000000000005abc                fs_unlink
 .text.fs_rename
                0x0000000000005ac8        0xc /Users/briangiori/dev/newt/blegpio/bin/nrf52_boot/fs/fs/fs.a(fs_mkdir.o)
                0x0000000000005ac8                fs_rename
 .text.fs_register
                0x0000000000005ad4       0x14 /Users/briangiori/dev/newt/blegpio/bin/nrf52_boot/fs/fs/fs.a(fs_mount.o)
                0x0000000000005ad4                fs_register
 .text.fsutil_read_file
                0x0000000000005ae8       0x2c /Users/briangiori/dev/newt/blegpio/bin/nrf52_boot/fs/fs/fs.a(fsutil.o)
                0x0000000000005ae8                fsutil_read_file
 .text.fsutil_write_file
                0x0000000000005b14       0x2a /Users/briangiori/dev/newt/blegpio/bin/nrf52_boot/fs/fs/fs.a(fsutil.o)
                0x0000000000005b14                fsutil_write_file
 *fill*         0x0000000000005b3e        0x2 
 .text.bsp_flash_dev
                0x0000000000005b40       0x10 /Users/briangiori/dev/newt/blegpio/bin/nrf52_boot/hw/bsp/nrf52dk/nrf52dk.a(hal_bsp.o)
                0x0000000000005b40                bsp_flash_dev
 .text._close   0x0000000000005b50        0x6 /Users/briangiori/dev/newt/blegpio/bin/nrf52_boot/hw/bsp/nrf52dk/nrf52dk.a(libc_stubs.o)
                0x0000000000005b50                _close
 .text._exit    0x0000000000005b56        0x6 /Users/briangiori/dev/newt/blegpio/bin/nrf52_boot/hw/bsp/nrf52dk/nrf52dk.a(libc_stubs.o)
                0x0000000000005b56                _exit
 .text.bsp_init
                0x0000000000005b5c       0x20 /Users/briangiori/dev/newt/blegpio/bin/nrf52_boot/hw/bsp/nrf52dk/nrf52dk.a(os_bsp.o)
                0x0000000000005b5c                bsp_init
 .text._sbrk    0x0000000000005b7c       0x44 /Users/briangiori/dev/newt/blegpio/bin/nrf52_boot/hw/bsp/nrf52dk/nrf52dk.a(sbrk.o)
                0x0000000000005b7c                _sbrk
 .text.nrf52k_flash_wait_ready
                0x0000000000005bc0       0x24 /Users/briangiori/dev/newt/blegpio/bin/nrf52_boot/hw/mcu/nordic/nrf52xxx/nrf52xxx.a(hal_flash.o)
 .text.nrf52k_flash_erase_sector
                0x0000000000005be4       0x58 /Users/briangiori/dev/newt/blegpio/bin/nrf52_boot/hw/mcu/nordic/nrf52xxx/nrf52xxx.a(hal_flash.o)
 .text.nrf52k_flash_init
                0x0000000000005c3c        0x4 /Users/briangiori/dev/newt/blegpio/bin/nrf52_boot/hw/mcu/nordic/nrf52xxx/nrf52xxx.a(hal_flash.o)
 .text.nrf52k_flash_write
                0x0000000000005c40       0xc8 /Users/briangiori/dev/newt/blegpio/bin/nrf52_boot/hw/mcu/nordic/nrf52xxx/nrf52xxx.a(hal_flash.o)
 .text.nrf52k_flash_read
                0x0000000000005d08       0x10 /Users/briangiori/dev/newt/blegpio/bin/nrf52_boot/hw/mcu/nordic/nrf52xxx/nrf52xxx.a(hal_flash.o)
 .text.nrf52k_flash_sector_info
                0x0000000000005d18       0x24 /Users/briangiori/dev/newt/blegpio/bin/nrf52_boot/hw/mcu/nordic/nrf52xxx/nrf52xxx.a(hal_flash.o)
 .text.unlikely.nrf52_os_tick_counter.part.0
                0x0000000000005d3c       0x14 /Users/briangiori/dev/newt/blegpio/bin/nrf52_boot/hw/mcu/nordic/nrf52xxx/nrf52xxx.a(hal_os_tick.o)
 .text.sub24    0x0000000000005d50       0x38 /Users/briangiori/dev/newt/blegpio/bin/nrf52_boot/hw/mcu/nordic/nrf52xxx/nrf52xxx.a(hal_os_tick.o)
 .text.nrf52_os_tick_set_ocmp
                0x0000000000005d88       0x50 /Users/briangiori/dev/newt/blegpio/bin/nrf52_boot/hw/mcu/nordic/nrf52xxx/nrf52xxx.a(hal_os_tick.o)
 .text.nrf52_timer_handler
                0x0000000000005dd8       0x58 /Users/briangiori/dev/newt/blegpio/bin/nrf52_boot/hw/mcu/nordic/nrf52xxx/nrf52xxx.a(hal_os_tick.o)
 .text.os_tick_idle
                0x0000000000005e30       0x48 /Users/briangiori/dev/newt/blegpio/bin/nrf52_boot/hw/mcu/nordic/nrf52xxx/nrf52xxx.a(hal_os_tick.o)
                0x0000000000005e30                os_tick_idle
 .text.system_reset
                0x0000000000005e78       0x30 /Users/briangiori/dev/newt/blegpio/bin/nrf52_boot/hw/mcu/nordic/nrf52xxx/nrf52xxx.a(hal_system.o)
                0x0000000000005e78                system_reset
 .text.system_debugger_connected
                0x0000000000005ea8       0x10 /Users/briangiori/dev/newt/blegpio/bin/nrf52_boot/hw/mcu/nordic/nrf52xxx/nrf52xxx.a(hal_system.o)
                0x0000000000005ea8                system_debugger_connected
 .text.memcmp   0x0000000000005eb8       0x1c /Users/briangiori/dev/newt/blegpio/bin/nrf52_boot/libs/baselibc/baselibc.a(memcmp.o)
                0x0000000000005eb8                memcmp
 .text.memcpy   0x0000000000005ed4       0x16 /Users/briangiori/dev/newt/blegpio/bin/nrf52_boot/libs/baselibc/baselibc.a(memcpy.o)
                0x0000000000005ed4                memcpy
 .text.realloc  0x0000000000005eea       0x58 /Users/briangiori/dev/newt/blegpio/bin/nrf52_boot/libs/baselibc/baselibc.a(realloc.o)
                0x0000000000005eea                realloc
 .text.strcmp   0x0000000000005f42       0x14 /Users/briangiori/dev/newt/blegpio/bin/nrf52_boot/libs/baselibc/baselibc.a(strcmp.o)
                0x0000000000005f42                strcmp
 .text.strtok_r
                0x0000000000005f56       0x1c /Users/briangiori/dev/newt/blegpio/bin/nrf52_boot/libs/baselibc/baselibc.a(strtok_r.o)
                0x0000000000005f56                strtok_r
 .text.strsep   0x0000000000005f72       0x1c /Users/briangiori/dev/newt/blegpio/bin/nrf52_boot/libs/baselibc/baselibc.a(strsep.o)
                0x0000000000005f72                strsep
 .text.strpbrk  0x0000000000005f8e       0x30 /Users/briangiori/dev/newt/blegpio/bin/nrf52_boot/libs/baselibc/baselibc.a(strpbrk.o)
                0x0000000000005f8e                strpbrk
 *fill*         0x0000000000005fbe        0x2 
 .text.base64_encode
                0x0000000000005fc0       0x9c /Users/briangiori/dev/newt/blegpio/bin/nrf52_boot/libs/util/util.a(base64.o)
                0x0000000000005fc0                base64_encode
 .text.base64_decode
                0x000000000000605c       0xac /Users/briangiori/dev/newt/blegpio/bin/nrf52_boot/libs/util/util.a(base64.o)
                0x000000000000605c                base64_decode
 .text.base64_decode_len
                0x0000000000006108       0x2a /Users/briangiori/dev/newt/blegpio/bin/nrf52_boot/libs/util/util.a(base64.o)
                0x0000000000006108                base64_decode_len
 *fill*         0x0000000000006132        0x2 
 .text.__errno  0x0000000000006134        0xc /usr/local/Cellar/gcc-arm-none-eabi-49/20150609/bin/../lib/gcc/arm-none-eabi/4.9.3/../../../../arm-none-eabi/lib/armv7e-m/libg.a(lib_a-errno.o)
                0x0000000000006134                __errno
 .text.__libc_init_array
                0x0000000000006140       0x50 /usr/local/Cellar/gcc-arm-none-eabi-49/20150609/bin/../lib/gcc/arm-none-eabi/4.9.3/../../../../arm-none-eabi/lib/armv7e-m/libg.a(lib_a-init.o)
                0x0000000000006140                __libc_init_array
 *(.init)
 .init          0x0000000000006190        0x4 /usr/local/Cellar/gcc-arm-none-eabi-49/20150609/bin/../lib/gcc/arm-none-eabi/4.9.3/armv7e-m/crti.o
                0x0000000000006190                _init
 .init          0x0000000000006194        0x8 /usr/local/Cellar/gcc-arm-none-eabi-49/20150609/bin/../lib/gcc/arm-none-eabi/4.9.3/armv7e-m/crtn.o
 *(.fini)
 .fini          0x000000000000619c        0x4 /usr/local/Cellar/gcc-arm-none-eabi-49/20150609/bin/../lib/gcc/arm-none-eabi/4.9.3/armv7e-m/crti.o
                0x000000000000619c                _fini
 .fini          0x00000000000061a0        0x8 /usr/local/Cellar/gcc-arm-none-eabi-49/20150609/bin/../lib/gcc/arm-none-eabi/4.9.3/armv7e-m/crtn.o
 *crtbegin.o(.ctors)
 *crtbegin?.o(.ctors)
 *(EXCLUDE_FILE(*crtend.o *crtend?.o) .ctors)
 *(SORT(.ctors.*))
 *(.ctors)
 *crtbegin.o(.dtors)
 *crtbegin?.o(.dtors)
 *(EXCLUDE_FILE(*crtend.o *crtend?.o) .dtors)
 *(SORT(.dtors.*))
 *(.dtors)
 *(.rodata*)
 .rodata.str1.1
                0x00000000000061a8       0x10 /Users/briangiori/dev/newt/blegpio/bin/nrf52_boot/apps/boot/boot.a(boot.o)
 .rodata.str1.1
                0x00000000000061b8        0xc /Users/briangiori/dev/newt/blegpio/bin/nrf52_boot/fs/nffs/nffs.a(nffs.o)
 .rodata.nffs_ops
                0x00000000000061c4       0x40 /Users/briangiori/dev/newt/blegpio/bin/nrf52_boot/fs/nffs/nffs.a(nffs.o)
 .rodata.str1.1
                0x0000000000006204        0xd /Users/briangiori/dev/newt/blegpio/bin/nrf52_boot/fs/nffs/nffs.a(nffs_cache.o)
 .rodata.str1.1
                0x0000000000006211        0xc /Users/briangiori/dev/newt/blegpio/bin/nrf52_boot/fs/nffs/nffs.a(nffs_file.o)
 .rodata.str1.1
                0x000000000000621d        0xd /Users/briangiori/dev/newt/blegpio/bin/nrf52_boot/fs/nffs/nffs.a(nffs_flash.o)
 .rodata.str1.1
                0x000000000000622a        0xe /Users/briangiori/dev/newt/blegpio/bin/nrf52_boot/fs/nffs/nffs.a(nffs_format.o)
                                          0xf (size before relaxing)
 .rodata.str1.1
                0x0000000000006238        0xc /Users/briangiori/dev/newt/blegpio/bin/nrf52_boot/fs/nffs/nffs.a(nffs_hash.o)
 .rodata.str1.1
                0x0000000000006244        0xd /Users/briangiori/dev/newt/blegpio/bin/nrf52_boot/fs/nffs/nffs.a(nffs_inode.o)
                                          0xe (size before relaxing)
 .rodata.str1.1
                0x0000000000006251       0x8d /Users/briangiori/dev/newt/blegpio/bin/nrf52_boot/fs/nffs/nffs.a(nffs_misc.o)
 .rodata.str1.1
                0x00000000000062de        0xc /Users/briangiori/dev/newt/blegpio/bin/nrf52_boot/fs/nffs/nffs.a(nffs_path.o)
 .rodata.str1.1
                0x00000000000062ea       0x1c /Users/briangiori/dev/newt/blegpio/bin/nrf52_boot/fs/nffs/nffs.a(nffs_restore.o)
 .rodata.str1.1
                0x0000000000006306        0xd /Users/briangiori/dev/newt/blegpio/bin/nrf52_boot/fs/nffs/nffs.a(nffs_write.o)
 .rodata.str1.1
                0x0000000000006313        0xd /Users/briangiori/dev/newt/blegpio/bin/nrf52_boot/fs/nffs/nffs.a(nffs_block.o)
 .rodata.str1.1
                0x0000000000006320        0xa /Users/briangiori/dev/newt/blegpio/bin/nrf52_boot/fs/nffs/nffs.a(nffs_gc.o)
 .rodata.str1.1
                0x000000000000632a        0xc /Users/briangiori/dev/newt/blegpio/bin/nrf52_boot/hw/hal/hal.a(hal_flash.o)
 .rodata.str1.1
                0x0000000000006336       0x22 /Users/briangiori/dev/newt/blegpio/bin/nrf52_boot/libs/bootutil/bootutil.a(bootutil_misc.o)
                                         0x2c (size before relaxing)
 .rodata.str1.1
                0x0000000000006358        0x9 /Users/briangiori/dev/newt/blegpio/bin/nrf52_boot/libs/bootutil/bootutil.a(loader.o)
 .rodata.sha256_padding
                0x0000000000006361       0x40 /Users/briangiori/dev/newt/blegpio/bin/nrf52_boot/libs/mbedtls/mbedtls.a(sha256.o)
 *fill*         0x00000000000063a1        0x3 
 .rodata.K      0x00000000000063a4      0x100 /Users/briangiori/dev/newt/blegpio/bin/nrf52_boot/libs/mbedtls/mbedtls.a(sha256.o)
 .rodata.str1.1
                0x00000000000064a4        0xa /Users/briangiori/dev/newt/blegpio/bin/nrf52_boot/libs/os/os.a(os.o)
 .rodata.str1.1
                0x00000000000064ae        0xd /Users/briangiori/dev/newt/blegpio/bin/nrf52_boot/libs/os/os.a(os_callout.o)
 .rodata.str1.1
                0x00000000000064bb        0xa /Users/briangiori/dev/newt/blegpio/bin/nrf52_boot/libs/os/os.a(os_heap.o)
 .rodata.str1.1
                0x00000000000064c5        0xb /Users/briangiori/dev/newt/blegpio/bin/nrf52_boot/libs/os/os.a(os_mutex.o)
 .rodata.str1.1
                0x00000000000064d0        0xb /Users/briangiori/dev/newt/blegpio/bin/nrf52_boot/libs/os/os.a(os_sched.o)
 .rodata.str1.1
                0x00000000000064db        0xa /Users/briangiori/dev/newt/blegpio/bin/nrf52_boot/libs/os/os.a(os_time.o)
 *fill*         0x00000000000064e5        0x1 
 .rodata.crc16tab
                0x00000000000064e6      0x200 /Users/briangiori/dev/newt/blegpio/bin/nrf52_boot/libs/util/util.a(crc16.o)
 .rodata.str1.1
                0x00000000000066e6        0x4 /Users/briangiori/dev/newt/blegpio/bin/nrf52_boot/sys/config/config.a(config.o)
                                          0x6 (size before relaxing)
 .rodata.str1.1
                0x00000000000066ea        0x5 /Users/briangiori/dev/newt/blegpio/bin/nrf52_boot/sys/config/config.a(config_file.o)
 *fill*         0x00000000000066ef        0x1 
 .rodata.nrf52k_flash_dev
                0x00000000000066f0       0x14 /Users/briangiori/dev/newt/blegpio/bin/nrf52_boot/hw/mcu/nordic/nrf52xxx/nrf52xxx.a(hal_flash.o)
                0x00000000000066f0                nrf52k_flash_dev
 .rodata.str1.1
                0x0000000000000000        0xc /Users/briangiori/dev/newt/blegpio/bin/nrf52_boot/hw/mcu/nordic/nrf52xxx/nrf52xxx.a(hal_flash.o)
 .rodata.nrf52k_flash_funcs
                0x0000000000006704       0x14 /Users/briangiori/dev/newt/blegpio/bin/nrf52_boot/hw/mcu/nordic/nrf52xxx/nrf52xxx.a(hal_flash.o)
 .rodata.str1.1
                0x0000000000006718        0xe /Users/briangiori/dev/newt/blegpio/bin/nrf52_boot/hw/mcu/nordic/nrf52xxx/nrf52xxx.a(hal_os_tick.o)
 .rodata.base64_chars
                0x0000000000006726       0x41 /Users/briangiori/dev/newt/blegpio/bin/nrf52_boot/libs/util/util.a(base64.o)
 *fill*         0x0000000000006767        0x1 
 .rodata.str1.4
                0x0000000000006768        0x4 /usr/local/Cellar/gcc-arm-none-eabi-49/20150609/bin/../lib/gcc/arm-none-eabi/4.9.3/../../../../arm-none-eabi/lib/armv7e-m/libg.a(lib_a-impure.o)
                                          0x2 (size before relaxing)
 *(.eh_frame*)
                0x000000000000676c                . = ALIGN (0x4)

.glue_7         0x000000000000676c        0x0
 .glue_7        0x0000000000000000        0x0 linker stubs

.glue_7t        0x000000000000676c        0x0
 .glue_7t       0x0000000000000000        0x0 linker stubs

.vfp11_veneer   0x000000000000676c        0x0
 .vfp11_veneer  0x0000000000000000        0x0 linker stubs

.v4_bx          0x000000000000676c        0x0
 .v4_bx         0x0000000000000000        0x0 linker stubs

.iplt           0x000000000000676c        0x0
 .iplt          0x0000000000000000        0x0 /usr/local/Cellar/gcc-arm-none-eabi-49/20150609/bin/../lib/gcc/arm-none-eabi/4.9.3/armv7e-m/crtbegin.o

.ARM.extab      0x000000000000676c        0x0
 *(.ARM.extab* .gnu.linkonce.armextab.*)
                0x000000000000676c                . = ALIGN (0x4)
                0x000000000000676c                __exidx_start = .

.ARM.exidx      0x000000000000676c       0x18
 *(.ARM.exidx* .gnu.linkonce.armexidx.*)
 .ARM.exidx     0x000000000000676c        0x8 /usr/local/Cellar/gcc-arm-none-eabi-49/20150609/bin/../lib/gcc/arm-none-eabi/4.9.3/../../../../arm-none-eabi/lib/armv7e-m/crt0.o
 .ARM.exidx     0x0000000000006774        0x0 /Users/briangiori/dev/newt/blegpio/bin/nrf52_boot/hw/bsp/nrf52dk/nrf52dk.a(gcc_startup_nrf52.o)
                                          0x8 (size before relaxing)
 .ARM.exidx     0x0000000000006774       0x10 /Users/briangiori/dev/newt/blegpio/bin/nrf52_boot/libs/os/os.a(HAL_CM4.o)
                                         0x30 (size before relaxing)
                0x0000000000006784                . = ALIGN (0x4)
                0x0000000000006784                __exidx_end = .
                0x0000000000006784                __etext = .

.rel.dyn        0x0000000000006784        0x0
 .rel.iplt      0x0000000000000000        0x0 /usr/local/Cellar/gcc-arm-none-eabi-49/20150609/bin/../lib/gcc/arm-none-eabi/4.9.3/armv7e-m/crtbegin.o

.vector_relocation
                0x0000000020000000       0xd8
                0x0000000020000000                . = ALIGN (0x4)
                0x0000000020000000                __vector_tbl_reloc__ = .
                0x00000000200000d8                . = (. + (__isr_vector_end - __isr_vector_start))
 *fill*         0x0000000020000000       0xd8 
                0x00000000200000d8                . = ALIGN (0x4)

.data           0x00000000200000d8      0x4f4 load address 0x0000000000006784
                0x00000000200000d8                __data_start__ = .
 *(vtable)
 *(.data*)
 .data.my_conf  0x00000000200000d8       0x14 /Users/briangiori/dev/newt/blegpio/bin/nrf52_boot/apps/boot/boot.a(boot.o)
 .data.nffs_cache_inode_list
                0x00000000200000ec        0x8 /Users/briangiori/dev/newt/blegpio/bin/nrf52_boot/fs/nffs/nffs.a(nffs_cache.o)
 .data.SystemCoreClock
                0x00000000200000f4        0x4 /Users/briangiori/dev/newt/blegpio/bin/nrf52_boot/hw/bsp/nrf52dk/nrf52dk.a(system_nrf52.o)
                0x00000000200000f4                SystemCoreClock
 .data.__malloc_head
                0x00000000200000f8       0x18 /Users/briangiori/dev/newt/blegpio/bin/nrf52_boot/libs/baselibc/baselibc.a(malloc.o)
 .data.malloc_unlock
                0x0000000020000110        0x4 /Users/briangiori/dev/newt/blegpio/bin/nrf52_boot/libs/baselibc/baselibc.a(malloc.o)
 .data.malloc_lock
                0x0000000020000114        0x4 /Users/briangiori/dev/newt/blegpio/bin/nrf52_boot/libs/baselibc/baselibc.a(malloc.o)
 .data.boot_conf_handler
                0x0000000020000118       0x18 /Users/briangiori/dev/newt/blegpio/bin/nrf52_boot/libs/bootutil/bootutil.a(bootutil_misc.o)
 .data.g_os_mempool_list
                0x0000000020000130        0x8 /Users/briangiori/dev/newt/blegpio/bin/nrf52_boot/libs/os/os.a(os_mempool.o)
                0x0000000020000130                g_os_mempool_list
 .data.g_os_run_list
                0x0000000020000138        0x8 /Users/briangiori/dev/newt/blegpio/bin/nrf52_boot/libs/os/os.a(os_sched.o)
                0x0000000020000138                g_os_run_list
 .data.g_os_sleep_list
                0x0000000020000140        0x8 /Users/briangiori/dev/newt/blegpio/bin/nrf52_boot/libs/os/os.a(os_sched.o)
                0x0000000020000140                g_os_sleep_list
 .data          0x0000000020000148        0x0 /Users/briangiori/dev/newt/blegpio/bin/nrf52_boot/libs/os/os.a(HAL_CM4.o)
                0x0000000020000148                __aeabi_unwind_cpp_pr0
 .data.conf_file_itf
                0x0000000020000148       0x10 /Users/briangiori/dev/newt/blegpio/bin/nrf52_boot/sys/config/config.a(config_file.o)
 .data.g_log_list
                0x0000000020000158        0x8 /Users/briangiori/dev/newt/blegpio/bin/nrf52_boot/sys/log/log.a(log.o)
 .data.bsp_flash_areas
                0x0000000020000160       0x3c /Users/briangiori/dev/newt/blegpio/bin/nrf52_boot/hw/bsp/nrf52dk/nrf52dk.a(os_bsp.o)
 .data.brk      0x000000002000019c        0x4 /Users/briangiori/dev/newt/blegpio/bin/nrf52_boot/hw/bsp/nrf52dk/nrf52dk.a(sbrk.o)
 .data.impure_data
                0x00000000200001a0      0x428 /usr/local/Cellar/gcc-arm-none-eabi-49/20150609/bin/../lib/gcc/arm-none-eabi/4.9.3/../../../../arm-none-eabi/lib/armv7e-m/libg.a(lib_a-impure.o)
 .data._impure_ptr
                0x00000000200005c8        0x4 /usr/local/Cellar/gcc-arm-none-eabi-49/20150609/bin/../lib/gcc/arm-none-eabi/4.9.3/../../../../arm-none-eabi/lib/armv7e-m/libg.a(lib_a-impure.o)
                0x00000000200005c8                _impure_ptr
                0x00000000200005cc                . = ALIGN (0x4)
                0x00000000200005cc                PROVIDE (__preinit_array_start, .)
 *(.preinit_array)
                0x00000000200005cc                PROVIDE (__preinit_array_end, .)
                0x00000000200005cc                . = ALIGN (0x4)
                0x00000000200005cc                PROVIDE (__init_array_start, .)
 *(SORT(.init_array.*))
 *(.init_array)
                0x00000000200005cc                PROVIDE (__init_array_end, .)
                0x00000000200005cc                . = ALIGN (0x4)
                0x00000000200005cc                PROVIDE (__fini_array_start, .)
 *(SORT(.fini_array.*))
 *(.fini_array)
                0x00000000200005cc                PROVIDE (__fini_array_end, .)
 *(.jcr)
                0x00000000200005cc                . = ALIGN (0x4)
                0x00000000200005cc                __data_end__ = .

.igot.plt       0x00000000200005cc        0x0 load address 0x0000000000006c78
 .igot.plt      0x0000000000000000        0x0 /usr/local/Cellar/gcc-arm-none-eabi-49/20150609/bin/../lib/gcc/arm-none-eabi/4.9.3/armv7e-m/crtbegin.o

.bssnz          0x00000000200005cc        0x0
                0x00000000200005cc                . = ALIGN (0x4)
                0x00000000200005cc                __bssnz_start__ = .
 *(.bss.core.nz*)
                0x00000000200005cc                . = ALIGN (0x4)
                0x00000000200005cc                __bssnz_end__ = .

.bss            0x00000000200005d0      0xa08 load address 0x0000000000006c80
                0x00000000200005d0                . = ALIGN (0x4)
                0x00000000200005d0                __bss_start__ = .
 *(.bss*)
 .bss.nffs_mutex
                0x00000000200005d0        0xc /Users/briangiori/dev/newt/blegpio/bin/nrf52_boot/fs/nffs/nffs.a(nffs.o)
 .bss.nffs_log_console_handler
                0x00000000200005dc       0x1c /Users/briangiori/dev/newt/blegpio/bin/nrf52_boot/fs/nffs/nffs.a(nffs.o)
 .bss.nffs_inode_unlink_list
                0x00000000200005f8        0x4 /Users/briangiori/dev/newt/blegpio/bin/nrf52_boot/fs/nffs/nffs.a(nffs_inode.o)
 .bss.total_gc_cycles.7305
                0x00000000200005fc        0x1 /Users/briangiori/dev/newt/blegpio/bin/nrf52_boot/fs/nffs/nffs.a(nffs_misc.o)
 *fill*         0x00000000200005fd        0x1 
 .bss.nffs_restore_largest_block_data_len
                0x00000000200005fe        0x2 /Users/briangiori/dev/newt/blegpio/bin/nrf52_boot/fs/nffs/nffs.a(nffs_restore.o)
 .bss.flash_map
                0x0000000020000600        0x4 /Users/briangiori/dev/newt/blegpio/bin/nrf52_boot/hw/hal/hal.a(flash_map.o)
 .bss.flash_map_entries
                0x0000000020000604        0x4 /Users/briangiori/dev/newt/blegpio/bin/nrf52_boot/hw/hal/hal.a(flash_map.o)
 .bss.boot_main
                0x0000000020000608        0x8 /Users/briangiori/dev/newt/blegpio/bin/nrf52_boot/libs/bootutil/bootutil.a(bootutil_misc.o)
 .bss.boot_test
                0x0000000020000610        0x8 /Users/briangiori/dev/newt/blegpio/bin/nrf52_boot/libs/bootutil/bootutil.a(bootutil_misc.o)
 .bss.tmpbuf.4443
                0x0000000020000618        0x4 /Users/briangiori/dev/newt/blegpio/bin/nrf52_boot/libs/bootutil/bootutil.a(loader.o)
 .bss.scratch_sz.4451
                0x000000002000061c        0x4 /Users/briangiori/dev/newt/blegpio/bin/nrf52_boot/libs/bootutil/bootutil.a(loader.o)
 .bss.boot_state
                0x0000000020000620        0x8 /Users/briangiori/dev/newt/blegpio/bin/nrf52_boot/libs/bootutil/bootutil.a(loader.o)
 .bss.boot_req  0x0000000020000628        0x4 /Users/briangiori/dev/newt/blegpio/bin/nrf52_boot/libs/bootutil/bootutil.a(loader.o)
 .bss.buf.4476  0x000000002000062c      0x400 /Users/briangiori/dev/newt/blegpio/bin/nrf52_boot/libs/bootutil/bootutil.a(loader.o)
 .bss.os_flags  0x0000000020000a2c        0x4 /Users/briangiori/dev/newt/blegpio/bin/nrf52_boot/libs/os/os.a(os_arch_arm.o)
                0x0000000020000a2c                os_flags
 .bss.os_malloc_mutex
                0x0000000020000a30        0xc /Users/briangiori/dev/newt/blegpio/bin/nrf52_boot/libs/os/os.a(os_heap.o)
 *fill*         0x0000000020000a3c        0x4 
 .bss.basetod   0x0000000020000a40       0x30 /Users/briangiori/dev/newt/blegpio/bin/nrf52_boot/libs/os/os.a(os_time.o)
 .bss.g_os_sanity_check_list
                0x0000000020000a70        0x4 /Users/briangiori/dev/newt/blegpio/bin/nrf52_boot/libs/os/os.a(os_sanity.o)
                0x0000000020000a70                g_os_sanity_check_list
 .bss.conf_cmd_inited
                0x0000000020000a74        0x1 /Users/briangiori/dev/newt/blegpio/bin/nrf52_boot/sys/config/config.a(config.o)
 *fill*         0x0000000020000a75        0x3 
 .bss.conf_handlers
                0x0000000020000a78        0x4 /Users/briangiori/dev/newt/blegpio/bin/nrf52_boot/sys/config/config.a(config.o)
                0x0000000020000a78                conf_handlers
 .bss.conf_load_srcs
                0x0000000020000a7c        0x4 /Users/briangiori/dev/newt/blegpio/bin/nrf52_boot/sys/config/config.a(config_store.o)
                0x0000000020000a7c                conf_load_srcs
 .bss.log_inited
                0x0000000020000a80        0x1 /Users/briangiori/dev/newt/blegpio/bin/nrf52_boot/sys/log/log.a(log.o)
 *fill*         0x0000000020000a81        0x3 
 .bss.fs_root_ops
                0x0000000020000a84        0x4 /Users/briangiori/dev/newt/blegpio/bin/nrf52_boot/fs/fs/fs.a(fs_mount.o)
                0x0000000020000a84                fs_root_ops
 *(COMMON)
 COMMON         0x0000000020000a88       0xfc /Users/briangiori/dev/newt/blegpio/bin/nrf52_boot/fs/nffs/nffs.a(nffs.o)
                0x0000000020000a88                nffs_cache_inode_pool
                0x0000000020000aa4                nffs_scratch_area_idx
                0x0000000020000aa8                nffs_cache_inode_mem
                0x0000000020000aac                nffs_dir_pool
                0x0000000020000ac8                nffs_lost_found_dir
                0x0000000020000acc                nffs_file_pool
                0x0000000020000ae8                nffs_cache_block_pool
                0x0000000020000b04                nffs_current_area_descs
                0x0000000020000b08                nffs_inode_entry_pool
                0x0000000020000b24                nffs_num_areas
                0x0000000020000b28                nffs_file_mem
                0x0000000020000b2c                nffs_cache_block_mem
                0x0000000020000b30                nffs_inode_mem
                0x0000000020000b34                nffs_log
                0x0000000020000b40                nffs_areas
                0x0000000020000b44                nffs_block_entry_pool
                0x0000000020000b60                nffs_block_max_data_sz
                0x0000000020000b68                g_log_info
                0x0000000020000b78                nffs_root_dir
                0x0000000020000b7c                nffs_dir_mem
                0x0000000020000b80                nffs_block_entry_mem
 COMMON         0x0000000020000b84       0x18 /Users/briangiori/dev/newt/blegpio/bin/nrf52_boot/fs/nffs/nffs.a(nffs_config.o)
                0x0000000020000b84                nffs_config
 COMMON         0x0000000020000b9c      0x100 /Users/briangiori/dev/newt/blegpio/bin/nrf52_boot/fs/nffs/nffs.a(nffs_flash.o)
                0x0000000020000b9c                nffs_flash_buf
 COMMON         0x0000000020000c9c       0x10 /Users/briangiori/dev/newt/blegpio/bin/nrf52_boot/fs/nffs/nffs.a(nffs_hash.o)
                0x0000000020000c9c                nffs_hash_next_dir_id
                0x0000000020000ca0                nffs_hash_next_block_id
                0x0000000020000ca4                nffs_hash
                0x0000000020000ca8                nffs_hash_next_file_id
 COMMON         0x0000000020000cac        0x4 /Users/briangiori/dev/newt/blegpio/bin/nrf52_boot/fs/nffs/nffs.a(nffs_gc.o)
                0x0000000020000cac                nffs_gc_count
 COMMON         0x0000000020000cb0       0x40 /Users/briangiori/dev/newt/blegpio/bin/nrf52_boot/libs/bootutil/bootutil.a(loader.o)
                0x0000000020000cb0                boot_img_hdrs
 COMMON         0x0000000020000cf0      0x158 /Users/briangiori/dev/newt/blegpio/bin/nrf52_boot/libs/os/os.a(os.o)
                0x0000000020000cf0                g_idle_task
                0x0000000020000d40                g_os_idle_ctr
                0x0000000020000d44                g_idle_task_stack
                0x0000000020000e44                g_os_started
 COMMON         0x0000000020000e48        0x8 /Users/briangiori/dev/newt/blegpio/bin/nrf52_boot/libs/os/os.a(os_callout.o)
                0x0000000020000e48                g_callout_list
 COMMON         0x0000000020000e50        0x8 /Users/briangiori/dev/newt/blegpio/bin/nrf52_boot/libs/os/os.a(os_sched.o)
                0x0000000020000e50                g_current_task
                0x0000000020000e54                g_os_last_ctx_sw_time
 COMMON         0x0000000020000e58        0x9 /Users/briangiori/dev/newt/blegpio/bin/nrf52_boot/libs/os/os.a(os_task.o)
                0x0000000020000e58                g_os_task_list
                0x0000000020000e60                g_task_id
 *fill*         0x0000000020000e61        0x3 
 COMMON         0x0000000020000e64        0x4 /Users/briangiori/dev/newt/blegpio/bin/nrf52_boot/libs/os/os.a(os_time.o)
                0x0000000020000e64                g_os_time
 COMMON         0x0000000020000e68      0x160 /Users/briangiori/dev/newt/blegpio/bin/nrf52_boot/libs/os/os.a(os_sanity.o)
                0x0000000020000e68                g_os_sanity_num_secs
                0x0000000020000e6c                g_os_sanity_check_mu
                0x0000000020000e78                g_os_sanity_task
                0x0000000020000ec8                g_os_sanity_task_stack
 COMMON         0x0000000020000fc8        0x4 /Users/briangiori/dev/newt/blegpio/bin/nrf52_boot/sys/config/config.a(config_store.o)
                0x0000000020000fc8                conf_save_dst
 COMMON         0x0000000020000fcc        0xc /Users/briangiori/dev/newt/blegpio/bin/nrf52_boot/hw/mcu/nordic/nrf52xxx/nrf52xxx.a(hal_os_tick.o)
                0x0000000020000fcc                g_hal_os_tick
                0x0000000020000fd8                . = ALIGN (0x4)
                0x0000000020000fd8                __bss_end__ = .
                0x0000000020000fd8                __HeapBase = .

.stack_dummy    0x0000000020000fd8      0x1b0
 *(.stack*)
 .stack         0x0000000020000fd8      0x1b0 /Users/briangiori/dev/newt/blegpio/bin/nrf52_boot/hw/bsp/nrf52dk/nrf52dk.a(gcc_startup_nrf52.o)
                0x0000000020010000                __StackTop = (ORIGIN (RAM) + 0x10000)
                0x000000002000fe50                __StackLimit = (__StackTop - SIZEOF (.stack_dummy))
                0x0000000020010000                PROVIDE (__stack, __StackTop)
                0x000000002000fe50                __HeapLimit = __StackLimit
                0x0000000000000001                ASSERT ((__HeapBase <= __HeapLimit), region RAM overflowed with stack)
OUTPUT(/Users/briangiori/dev/newt/blegpio/bin/nrf52_boot/apps/boot/boot.elf elf32-littlearm)

.ARM.attributes
                0x0000000000000000       0x2a
 .ARM.attributes
                0x0000000000000000       0x1e /usr/local/Cellar/gcc-arm-none-eabi-49/20150609/bin/../lib/gcc/arm-none-eabi/4.9.3/armv7e-m/crti.o
 .ARM.attributes
                0x000000000000001e       0x1c /usr/local/Cellar/gcc-arm-none-eabi-49/20150609/bin/../lib/gcc/arm-none-eabi/4.9.3/../../../../arm-none-eabi/lib/armv7e-m/crt0.o
 .ARM.attributes
                0x000000000000003a       0x33 /Users/briangiori/dev/newt/blegpio/bin/nrf52_boot/apps/boot/boot.a(boot.o)
 .ARM.attributes
                0x000000000000006d       0x33 /Users/briangiori/dev/newt/blegpio/bin/nrf52_boot/fs/nffs/nffs.a(nffs.o)
 .ARM.attributes
                0x00000000000000a0       0x33 /Users/briangiori/dev/newt/blegpio/bin/nrf52_boot/fs/nffs/nffs.a(nffs_cache.o)
 .ARM.attributes
                0x00000000000000d3       0x33 /Users/briangiori/dev/newt/blegpio/bin/nrf52_boot/fs/nffs/nffs.a(nffs_config.o)
 .ARM.attributes
                0x0000000000000106       0x33 /Users/briangiori/dev/newt/blegpio/bin/nrf52_boot/fs/nffs/nffs.a(nffs_dir.o)
 .ARM.attributes
                0x0000000000000139       0x33 /Users/briangiori/dev/newt/blegpio/bin/nrf52_boot/fs/nffs/nffs.a(nffs_file.o)
 .ARM.attributes
                0x000000000000016c       0x33 /Users/briangiori/dev/newt/blegpio/bin/nrf52_boot/fs/nffs/nffs.a(nffs_flash.o)
 .ARM.attributes
                0x000000000000019f       0x33 /Users/briangiori/dev/newt/blegpio/bin/nrf52_boot/fs/nffs/nffs.a(nffs_format.o)
 .ARM.attributes
                0x00000000000001d2       0x33 /Users/briangiori/dev/newt/blegpio/bin/nrf52_boot/fs/nffs/nffs.a(nffs_hash.o)
 .ARM.attributes
                0x0000000000000205       0x33 /Users/briangiori/dev/newt/blegpio/bin/nrf52_boot/fs/nffs/nffs.a(nffs_inode.o)
 .ARM.attributes
                0x0000000000000238       0x33 /Users/briangiori/dev/newt/blegpio/bin/nrf52_boot/fs/nffs/nffs.a(nffs_misc.o)
 .ARM.attributes
                0x000000000000026b       0x33 /Users/briangiori/dev/newt/blegpio/bin/nrf52_boot/fs/nffs/nffs.a(nffs_path.o)
 .ARM.attributes
                0x000000000000029e       0x33 /Users/briangiori/dev/newt/blegpio/bin/nrf52_boot/fs/nffs/nffs.a(nffs_restore.o)
 .ARM.attributes
                0x00000000000002d1       0x33 /Users/briangiori/dev/newt/blegpio/bin/nrf52_boot/fs/nffs/nffs.a(nffs_write.o)
 .ARM.attributes
                0x0000000000000304       0x33 /Users/briangiori/dev/newt/blegpio/bin/nrf52_boot/fs/nffs/nffs.a(nffs_area.o)
 .ARM.attributes
                0x0000000000000337       0x33 /Users/briangiori/dev/newt/blegpio/bin/nrf52_boot/fs/nffs/nffs.a(nffs_block.o)
 .ARM.attributes
                0x000000000000036a       0x33 /Users/briangiori/dev/newt/blegpio/bin/nrf52_boot/fs/nffs/nffs.a(nffs_crc.o)
 .ARM.attributes
                0x000000000000039d       0x33 /Users/briangiori/dev/newt/blegpio/bin/nrf52_boot/fs/nffs/nffs.a(nffs_gc.o)
 .ARM.attributes
                0x00000000000003d0       0x1b /Users/briangiori/dev/newt/blegpio/bin/nrf52_boot/hw/bsp/nrf52dk/nrf52dk.a(gcc_startup_nrf52.o)
 .ARM.attributes
                0x00000000000003eb       0x33 /Users/briangiori/dev/newt/blegpio/bin/nrf52_boot/hw/bsp/nrf52dk/nrf52dk.a(system_nrf52.o)
 .ARM.attributes
                0x000000000000041e       0x33 /Users/briangiori/dev/newt/blegpio/bin/nrf52_boot/hw/hal/hal.a(flash_map.o)
 .ARM.attributes
                0x0000000000000451       0x33 /Users/briangiori/dev/newt/blegpio/bin/nrf52_boot/hw/hal/hal.a(hal_flash.o)
 .ARM.attributes
                0x0000000000000484       0x33 /Users/briangiori/dev/newt/blegpio/bin/nrf52_boot/hw/mcu/nordic/nrf52xxx/nrf52xxx.a(hal_system_start.o)
 .ARM.attributes
                0x00000000000004b7       0x33 /Users/briangiori/dev/newt/blegpio/bin/nrf52_boot/libs/baselibc/baselibc.a(inline.o)
 .ARM.attributes
                0x00000000000004ea       0x33 /Users/briangiori/dev/newt/blegpio/bin/nrf52_boot/libs/baselibc/baselibc.a(malloc.o)
 .ARM.attributes
                0x000000000000051d       0x33 /Users/briangiori/dev/newt/blegpio/bin/nrf52_boot/libs/baselibc/baselibc.a(memset.o)
 .ARM.attributes
                0x0000000000000550       0x33 /Users/briangiori/dev/newt/blegpio/bin/nrf52_boot/libs/baselibc/baselibc.a(strchr.o)
 .ARM.attributes
                0x0000000000000583       0x33 /Users/briangiori/dev/newt/blegpio/bin/nrf52_boot/libs/baselibc/baselibc.a(strcpy.o)
 .ARM.attributes
                0x00000000000005b6       0x33 /Users/briangiori/dev/newt/blegpio/bin/nrf52_boot/libs/baselibc/baselibc.a(strlen.o)
 .ARM.attributes
                0x00000000000005e9       0x33 /Users/briangiori/dev/newt/blegpio/bin/nrf52_boot/libs/baselibc/baselibc.a(strncmp.o)
 .ARM.attributes
                0x000000000000061c       0x33 /Users/briangiori/dev/newt/blegpio/bin/nrf52_boot/libs/bootutil/bootutil.a(bootutil_misc.o)
 .ARM.attributes
                0x000000000000064f       0x33 /Users/briangiori/dev/newt/blegpio/bin/nrf52_boot/libs/bootutil/bootutil.a(loader.o)
 .ARM.attributes
                0x0000000000000682       0x33 /Users/briangiori/dev/newt/blegpio/bin/nrf52_boot/libs/bootutil/bootutil.a(image_validate.o)
 .ARM.attributes
                0x00000000000006b5       0x33 /Users/briangiori/dev/newt/blegpio/bin/nrf52_boot/libs/cmsis-core/cmsis-core.a(cmsis_nvic.o)
 .ARM.attributes
                0x00000000000006e8       0x33 /Users/briangiori/dev/newt/blegpio/bin/nrf52_boot/libs/mbedtls/mbedtls.a(sha256.o)
 .ARM.attributes
                0x000000000000071b       0x33 /Users/briangiori/dev/newt/blegpio/bin/nrf52_boot/libs/os/os.a(os.o)
 .ARM.attributes
                0x000000000000074e       0x33 /Users/briangiori/dev/newt/blegpio/bin/nrf52_boot/libs/os/os.a(os_arch_arm.o)
 .ARM.attributes
                0x0000000000000781       0x33 /Users/briangiori/dev/newt/blegpio/bin/nrf52_boot/libs/os/os.a(os_callout.o)
 .ARM.attributes
                0x00000000000007b4       0x33 /Users/briangiori/dev/newt/blegpio/bin/nrf52_boot/libs/os/os.a(os_eventq.o)
 .ARM.attributes
                0x00000000000007e7       0x33 /Users/briangiori/dev/newt/blegpio/bin/nrf52_boot/libs/os/os.a(os_fault.o)
 .ARM.attributes
                0x000000000000081a       0x33 /Users/briangiori/dev/newt/blegpio/bin/nrf52_boot/libs/os/os.a(os_heap.o)
 .ARM.attributes
                0x000000000000084d       0x33 /Users/briangiori/dev/newt/blegpio/bin/nrf52_boot/libs/os/os.a(os_mempool.o)
 .ARM.attributes
                0x0000000000000880       0x33 /Users/briangiori/dev/newt/blegpio/bin/nrf52_boot/libs/os/os.a(os_mutex.o)
 .ARM.attributes
                0x00000000000008b3       0x33 /Users/briangiori/dev/newt/blegpio/bin/nrf52_boot/libs/os/os.a(os_sched.o)
 .ARM.attributes
                0x00000000000008e6       0x33 /Users/briangiori/dev/newt/blegpio/bin/nrf52_boot/libs/os/os.a(os_task.o)
 .ARM.attributes
                0x0000000000000919       0x33 /Users/briangiori/dev/newt/blegpio/bin/nrf52_boot/libs/os/os.a(os_time.o)
 .ARM.attributes
                0x000000000000094c       0x21 /Users/briangiori/dev/newt/blegpio/bin/nrf52_boot/libs/os/os.a(HAL_CM4.o)
 .ARM.attributes
                0x000000000000096d       0x21 /Users/briangiori/dev/newt/blegpio/bin/nrf52_boot/libs/os/os.a(SVC_Table.o)
 .ARM.attributes
                0x000000000000098e       0x33 /Users/briangiori/dev/newt/blegpio/bin/nrf52_boot/libs/os/os.a(os_sanity.o)
 .ARM.attributes
                0x00000000000009c1       0x33 /Users/briangiori/dev/newt/blegpio/bin/nrf52_boot/libs/util/util.a(crc16.o)
 .ARM.attributes
                0x00000000000009f4       0x33 /Users/briangiori/dev/newt/blegpio/bin/nrf52_boot/sys/config/config.a(config.o)
 .ARM.attributes
                0x0000000000000a27       0x33 /Users/briangiori/dev/newt/blegpio/bin/nrf52_boot/sys/config/config.a(config_file.o)
 .ARM.attributes
                0x0000000000000a5a       0x33 /Users/briangiori/dev/newt/blegpio/bin/nrf52_boot/sys/config/config.a(config_line.o)
 .ARM.attributes
                0x0000000000000a8d       0x33 /Users/briangiori/dev/newt/blegpio/bin/nrf52_boot/sys/config/config.a(config_store.o)
 .ARM.attributes
                0x0000000000000ac0       0x33 /Users/briangiori/dev/newt/blegpio/bin/nrf52_boot/sys/log/log.a(log.o)
 .ARM.attributes
                0x0000000000000af3       0x33 /Users/briangiori/dev/newt/blegpio/bin/nrf52_boot/sys/log/log.a(log_console.o)
 .ARM.attributes
                0x0000000000000b26       0x33 /Users/briangiori/dev/newt/blegpio/bin/nrf52_boot/fs/fs/fs.a(fs_file.o)
 .ARM.attributes
                0x0000000000000b59       0x33 /Users/briangiori/dev/newt/blegpio/bin/nrf52_boot/fs/fs/fs.a(fs_mkdir.o)
 .ARM.attributes
                0x0000000000000b8c       0x33 /Users/briangiori/dev/newt/blegpio/bin/nrf52_boot/fs/fs/fs.a(fs_mount.o)
 .ARM.attributes
                0x0000000000000bbf       0x33 /Users/briangiori/dev/newt/blegpio/bin/nrf52_boot/fs/fs/fs.a(fsutil.o)
 .ARM.attributes
                0x0000000000000bf2       0x33 /Users/briangiori/dev/newt/blegpio/bin/nrf52_boot/hw/bsp/nrf52dk/nrf52dk.a(hal_bsp.o)
 .ARM.attributes
                0x0000000000000c25       0x33 /Users/briangiori/dev/newt/blegpio/bin/nrf52_boot/hw/bsp/nrf52dk/nrf52dk.a(libc_stubs.o)
 .ARM.attributes
                0x0000000000000c58       0x33 /Users/briangiori/dev/newt/blegpio/bin/nrf52_boot/hw/bsp/nrf52dk/nrf52dk.a(os_bsp.o)
 .ARM.attributes
                0x0000000000000c8b       0x33 /Users/briangiori/dev/newt/blegpio/bin/nrf52_boot/hw/bsp/nrf52dk/nrf52dk.a(sbrk.o)
 .ARM.attributes
                0x0000000000000cbe       0x33 /Users/briangiori/dev/newt/blegpio/bin/nrf52_boot/hw/mcu/nordic/nrf52xxx/nrf52xxx.a(hal_flash.o)
 .ARM.attributes
                0x0000000000000cf1       0x33 /Users/briangiori/dev/newt/blegpio/bin/nrf52_boot/hw/mcu/nordic/nrf52xxx/nrf52xxx.a(hal_os_tick.o)
 .ARM.attributes
                0x0000000000000d24       0x33 /Users/briangiori/dev/newt/blegpio/bin/nrf52_boot/hw/mcu/nordic/nrf52xxx/nrf52xxx.a(hal_system.o)
 .ARM.attributes
                0x0000000000000d57       0x33 /Users/briangiori/dev/newt/blegpio/bin/nrf52_boot/libs/baselibc/baselibc.a(memcmp.o)
 .ARM.attributes
                0x0000000000000d8a       0x33 /Users/briangiori/dev/newt/blegpio/bin/nrf52_boot/libs/baselibc/baselibc.a(memcpy.o)
 .ARM.attributes
                0x0000000000000dbd       0x33 /Users/briangiori/dev/newt/blegpio/bin/nrf52_boot/libs/baselibc/baselibc.a(realloc.o)
 .ARM.attributes
                0x0000000000000df0       0x33 /Users/briangiori/dev/newt/blegpio/bin/nrf52_boot/libs/baselibc/baselibc.a(strcmp.o)
 .ARM.attributes
                0x0000000000000e23       0x33 /Users/briangiori/dev/newt/blegpio/bin/nrf52_boot/libs/baselibc/baselibc.a(strtok_r.o)
 .ARM.attributes
                0x0000000000000e56       0x33 /Users/briangiori/dev/newt/blegpio/bin/nrf52_boot/libs/baselibc/baselibc.a(strsep.o)
 .ARM.attributes
                0x0000000000000e89       0x33 /Users/briangiori/dev/newt/blegpio/bin/nrf52_boot/libs/baselibc/baselibc.a(strpbrk.o)
 .ARM.attributes
                0x0000000000000ebc       0x33 /Users/briangiori/dev/newt/blegpio/bin/nrf52_boot/libs/util/util.a(base64.o)
 .ARM.attributes
                0x0000000000000eef       0x2e /usr/local/Cellar/gcc-arm-none-eabi-49/20150609/bin/../lib/gcc/arm-none-eabi/4.9.3/../../../../arm-none-eabi/lib/armv7e-m/libg.a(lib_a-errno.o)
 .ARM.attributes
                0x0000000000000f1d       0x2e /usr/local/Cellar/gcc-arm-none-eabi-49/20150609/bin/../lib/gcc/arm-none-eabi/4.9.3/../../../../arm-none-eabi/lib/armv7e-m/libg.a(lib_a-impure.o)
 .ARM.attributes
                0x0000000000000f4b       0x2e /usr/local/Cellar/gcc-arm-none-eabi-49/20150609/bin/../lib/gcc/arm-none-eabi/4.9.3/../../../../arm-none-eabi/lib/armv7e-m/libg.a(lib_a-init.o)
 .ARM.attributes
                0x0000000000000f79       0x1e /usr/local/Cellar/gcc-arm-none-eabi-49/20150609/bin/../lib/gcc/arm-none-eabi/4.9.3/armv7e-m/crtn.o

.comment        0x0000000000000000       0x70
 .comment       0x0000000000000000       0x70 /Users/briangiori/dev/newt/blegpio/bin/nrf52_boot/apps/boot/boot.a(boot.o)
                                         0x71 (size before relaxing)
 .comment       0x0000000000000000       0x71 /Users/briangiori/dev/newt/blegpio/bin/nrf52_boot/fs/nffs/nffs.a(nffs.o)
 .comment       0x0000000000000000       0x71 /Users/briangiori/dev/newt/blegpio/bin/nrf52_boot/fs/nffs/nffs.a(nffs_cache.o)
 .comment       0x0000000000000000       0x71 /Users/briangiori/dev/newt/blegpio/bin/nrf52_boot/fs/nffs/nffs.a(nffs_config.o)
 .comment       0x0000000000000000       0x71 /Users/briangiori/dev/newt/blegpio/bin/nrf52_boot/fs/nffs/nffs.a(nffs_dir.o)
 .comment       0x0000000000000000       0x71 /Users/briangiori/dev/newt/blegpio/bin/nrf52_boot/fs/nffs/nffs.a(nffs_file.o)
 .comment       0x0000000000000000       0x71 /Users/briangiori/dev/newt/blegpio/bin/nrf52_boot/fs/nffs/nffs.a(nffs_flash.o)
 .comment       0x0000000000000000       0x71 /Users/briangiori/dev/newt/blegpio/bin/nrf52_boot/fs/nffs/nffs.a(nffs_format.o)
 .comment       0x0000000000000000       0x71 /Users/briangiori/dev/newt/blegpio/bin/nrf52_boot/fs/nffs/nffs.a(nffs_hash.o)
 .comment       0x0000000000000000       0x71 /Users/briangiori/dev/newt/blegpio/bin/nrf52_boot/fs/nffs/nffs.a(nffs_inode.o)
 .comment       0x0000000000000000       0x71 /Users/briangiori/dev/newt/blegpio/bin/nrf52_boot/fs/nffs/nffs.a(nffs_misc.o)
 .comment       0x0000000000000000       0x71 /Users/briangiori/dev/newt/blegpio/bin/nrf52_boot/fs/nffs/nffs.a(nffs_path.o)
 .comment       0x0000000000000000       0x71 /Users/briangiori/dev/newt/blegpio/bin/nrf52_boot/fs/nffs/nffs.a(nffs_restore.o)
 .comment       0x0000000000000000       0x71 /Users/briangiori/dev/newt/blegpio/bin/nrf52_boot/fs/nffs/nffs.a(nffs_write.o)
 .comment       0x0000000000000000       0x71 /Users/briangiori/dev/newt/blegpio/bin/nrf52_boot/fs/nffs/nffs.a(nffs_area.o)
 .comment       0x0000000000000000       0x71 /Users/briangiori/dev/newt/blegpio/bin/nrf52_boot/fs/nffs/nffs.a(nffs_block.o)
 .comment       0x0000000000000000       0x71 /Users/briangiori/dev/newt/blegpio/bin/nrf52_boot/fs/nffs/nffs.a(nffs_crc.o)
 .comment       0x0000000000000000       0x71 /Users/briangiori/dev/newt/blegpio/bin/nrf52_boot/fs/nffs/nffs.a(nffs_gc.o)
 .comment       0x0000000000000000       0x71 /Users/briangiori/dev/newt/blegpio/bin/nrf52_boot/hw/bsp/nrf52dk/nrf52dk.a(system_nrf52.o)
 .comment       0x0000000000000000       0x71 /Users/briangiori/dev/newt/blegpio/bin/nrf52_boot/hw/hal/hal.a(flash_map.o)
 .comment       0x0000000000000000       0x71 /Users/briangiori/dev/newt/blegpio/bin/nrf52_boot/hw/hal/hal.a(hal_flash.o)
 .comment       0x0000000000000000       0x71 /Users/briangiori/dev/newt/blegpio/bin/nrf52_boot/hw/mcu/nordic/nrf52xxx/nrf52xxx.a(hal_system_start.o)
 .comment       0x0000000000000000       0x71 /Users/briangiori/dev/newt/blegpio/bin/nrf52_boot/libs/baselibc/baselibc.a(inline.o)
 .comment       0x0000000000000000       0x71 /Users/briangiori/dev/newt/blegpio/bin/nrf52_boot/libs/baselibc/baselibc.a(malloc.o)
 .comment       0x0000000000000000       0x71 /Users/briangiori/dev/newt/blegpio/bin/nrf52_boot/libs/baselibc/baselibc.a(memset.o)
 .comment       0x0000000000000000       0x71 /Users/briangiori/dev/newt/blegpio/bin/nrf52_boot/libs/baselibc/baselibc.a(strchr.o)
 .comment       0x0000000000000000       0x71 /Users/briangiori/dev/newt/blegpio/bin/nrf52_boot/libs/baselibc/baselibc.a(strcpy.o)
 .comment       0x0000000000000000       0x71 /Users/briangiori/dev/newt/blegpio/bin/nrf52_boot/libs/baselibc/baselibc.a(strlen.o)
 .comment       0x0000000000000000       0x71 /Users/briangiori/dev/newt/blegpio/bin/nrf52_boot/libs/baselibc/baselibc.a(strncmp.o)
 .comment       0x0000000000000000       0x71 /Users/briangiori/dev/newt/blegpio/bin/nrf52_boot/libs/bootutil/bootutil.a(bootutil_misc.o)
 .comment       0x0000000000000000       0x71 /Users/briangiori/dev/newt/blegpio/bin/nrf52_boot/libs/bootutil/bootutil.a(loader.o)
 .comment       0x0000000000000000       0x71 /Users/briangiori/dev/newt/blegpio/bin/nrf52_boot/libs/bootutil/bootutil.a(image_validate.o)
 .comment       0x0000000000000000       0x71 /Users/briangiori/dev/newt/blegpio/bin/nrf52_boot/libs/cmsis-core/cmsis-core.a(cmsis_nvic.o)
 .comment       0x0000000000000000       0x71 /Users/briangiori/dev/newt/blegpio/bin/nrf52_boot/libs/mbedtls/mbedtls.a(sha256.o)
 .comment       0x0000000000000000       0x71 /Users/briangiori/dev/newt/blegpio/bin/nrf52_boot/libs/os/os.a(os.o)
 .comment       0x0000000000000000       0x71 /Users/briangiori/dev/newt/blegpio/bin/nrf52_boot/libs/os/os.a(os_arch_arm.o)
 .comment       0x0000000000000000       0x71 /Users/briangiori/dev/newt/blegpio/bin/nrf52_boot/libs/os/os.a(os_callout.o)
 .comment       0x0000000000000000       0x71 /Users/briangiori/dev/newt/blegpio/bin/nrf52_boot/libs/os/os.a(os_eventq.o)
 .comment       0x0000000000000000       0x71 /Users/briangiori/dev/newt/blegpio/bin/nrf52_boot/libs/os/os.a(os_fault.o)
 .comment       0x0000000000000000       0x71 /Users/briangiori/dev/newt/blegpio/bin/nrf52_boot/libs/os/os.a(os_heap.o)
 .comment       0x0000000000000000       0x71 /Users/briangiori/dev/newt/blegpio/bin/nrf52_boot/libs/os/os.a(os_mempool.o)
 .comment       0x0000000000000000       0x71 /Users/briangiori/dev/newt/blegpio/bin/nrf52_boot/libs/os/os.a(os_mutex.o)
 .comment       0x0000000000000000       0x71 /Users/briangiori/dev/newt/blegpio/bin/nrf52_boot/libs/os/os.a(os_sched.o)
 .comment       0x0000000000000000       0x71 /Users/briangiori/dev/newt/blegpio/bin/nrf52_boot/libs/os/os.a(os_task.o)
 .comment       0x0000000000000000       0x71 /Users/briangiori/dev/newt/blegpio/bin/nrf52_boot/libs/os/os.a(os_time.o)
 .comment       0x0000000000000000       0x71 /Users/briangiori/dev/newt/blegpio/bin/nrf52_boot/libs/os/os.a(os_sanity.o)
 .comment       0x0000000000000000       0x71 /Users/briangiori/dev/newt/blegpio/bin/nrf52_boot/libs/util/util.a(crc16.o)
 .comment       0x0000000000000000       0x71 /Users/briangiori/dev/newt/blegpio/bin/nrf52_boot/sys/config/config.a(config.o)
 .comment       0x0000000000000000       0x71 /Users/briangiori/dev/newt/blegpio/bin/nrf52_boot/sys/config/config.a(config_file.o)
 .comment       0x0000000000000000       0x71 /Users/briangiori/dev/newt/blegpio/bin/nrf52_boot/sys/config/config.a(config_line.o)
 .comment       0x0000000000000000       0x71 /Users/briangiori/dev/newt/blegpio/bin/nrf52_boot/sys/config/config.a(config_store.o)
 .comment       0x0000000000000000       0x71 /Users/briangiori/dev/newt/blegpio/bin/nrf52_boot/sys/log/log.a(log.o)
 .comment       0x0000000000000000       0x71 /Users/briangiori/dev/newt/blegpio/bin/nrf52_boot/sys/log/log.a(log_console.o)
 .comment       0x0000000000000000       0x71 /Users/briangiori/dev/newt/blegpio/bin/nrf52_boot/fs/fs/fs.a(fs_file.o)
 .comment       0x0000000000000000       0x71 /Users/briangiori/dev/newt/blegpio/bin/nrf52_boot/fs/fs/fs.a(fs_mkdir.o)
 .comment       0x0000000000000000       0x71 /Users/briangiori/dev/newt/blegpio/bin/nrf52_boot/fs/fs/fs.a(fs_mount.o)
 .comment       0x0000000000000000       0x71 /Users/briangiori/dev/newt/blegpio/bin/nrf52_boot/fs/fs/fs.a(fsutil.o)
 .comment       0x0000000000000000       0x71 /Users/briangiori/dev/newt/blegpio/bin/nrf52_boot/hw/bsp/nrf52dk/nrf52dk.a(hal_bsp.o)
 .comment       0x0000000000000000       0x71 /Users/briangiori/dev/newt/blegpio/bin/nrf52_boot/hw/bsp/nrf52dk/nrf52dk.a(libc_stubs.o)
 .comment       0x0000000000000000       0x71 /Users/briangiori/dev/newt/blegpio/bin/nrf52_boot/hw/bsp/nrf52dk/nrf52dk.a(os_bsp.o)
 .comment       0x0000000000000000       0x71 /Users/briangiori/dev/newt/blegpio/bin/nrf52_boot/hw/bsp/nrf52dk/nrf52dk.a(sbrk.o)
 .comment       0x0000000000000000       0x71 /Users/briangiori/dev/newt/blegpio/bin/nrf52_boot/hw/mcu/nordic/nrf52xxx/nrf52xxx.a(hal_flash.o)
 .comment       0x0000000000000000       0x71 /Users/briangiori/dev/newt/blegpio/bin/nrf52_boot/hw/mcu/nordic/nrf52xxx/nrf52xxx.a(hal_os_tick.o)
 .comment       0x0000000000000000       0x71 /Users/briangiori/dev/newt/blegpio/bin/nrf52_boot/hw/mcu/nordic/nrf52xxx/nrf52xxx.a(hal_system.o)
 .comment       0x0000000000000000       0x71 /Users/briangiori/dev/newt/blegpio/bin/nrf52_boot/libs/baselibc/baselibc.a(memcmp.o)
 .comment       0x0000000000000000       0x71 /Users/briangiori/dev/newt/blegpio/bin/nrf52_boot/libs/baselibc/baselibc.a(memcpy.o)
 .comment       0x0000000000000000       0x71 /Users/briangiori/dev/newt/blegpio/bin/nrf52_boot/libs/baselibc/baselibc.a(realloc.o)
 .comment       0x0000000000000000       0x71 /Users/briangiori/dev/newt/blegpio/bin/nrf52_boot/libs/baselibc/baselibc.a(strcmp.o)
 .comment       0x0000000000000000       0x71 /Users/briangiori/dev/newt/blegpio/bin/nrf52_boot/libs/baselibc/baselibc.a(strtok_r.o)
 .comment       0x0000000000000000       0x71 /Users/briangiori/dev/newt/blegpio/bin/nrf52_boot/libs/baselibc/baselibc.a(strsep.o)
 .comment       0x0000000000000000       0x71 /Users/briangiori/dev/newt/blegpio/bin/nrf52_boot/libs/baselibc/baselibc.a(strpbrk.o)
 .comment       0x0000000000000000       0x71 /Users/briangiori/dev/newt/blegpio/bin/nrf52_boot/libs/util/util.a(base64.o)

.heap           0x0000000000000000        0x0
 .heap          0x0000000000000000        0x0 /Users/briangiori/dev/newt/blegpio/bin/nrf52_boot/hw/bsp/nrf52dk/nrf52dk.a(gcc_startup_nrf52.o)

.svc_table      0x0000000000000000        0x4
 .svc_table     0x0000000000000000        0x4 /Users/briangiori/dev/newt/blegpio/bin/nrf52_boot/libs/os/os.a(SVC_Table.o)
                0x0000000000000000                SVC_Count
                0x0000000000000000                SVC_Table

.debug_info     0x0000000000000000    0x202a8
 .debug_info    0x0000000000000000      0x6f7 /Users/briangiori/dev/newt/blegpio/bin/nrf52_boot/apps/boot/boot.a(boot.o)
 .debug_info    0x00000000000006f7     0x1be6 /Users/briangiori/dev/newt/blegpio/bin/nrf52_boot/fs/nffs/nffs.a(nffs.o)
 .debug_info    0x00000000000022dd      0xf10 /Users/briangiori/dev/newt/blegpio/bin/nrf52_boot/fs/nffs/nffs.a(nffs_cache.o)
 .debug_info    0x00000000000031ed      0x10f /Users/briangiori/dev/newt/blegpio/bin/nrf52_boot/fs/nffs/nffs.a(nffs_config.o)
 .debug_info    0x00000000000032fc      0x690 /Users/briangiori/dev/newt/blegpio/bin/nrf52_boot/fs/nffs/nffs.a(nffs_dir.o)
 .debug_info    0x000000000000398c      0xc00 /Users/briangiori/dev/newt/blegpio/bin/nrf52_boot/fs/nffs/nffs.a(nffs_file.o)
 .debug_info    0x000000000000458c      0x5f3 /Users/briangiori/dev/newt/blegpio/bin/nrf52_boot/fs/nffs/nffs.a(nffs_flash.o)
 .debug_info    0x0000000000004b7f      0x73f /Users/briangiori/dev/newt/blegpio/bin/nrf52_boot/fs/nffs/nffs.a(nffs_format.o)
 .debug_info    0x00000000000052be      0x900 /Users/briangiori/dev/newt/blegpio/bin/nrf52_boot/fs/nffs/nffs.a(nffs_hash.o)
 .debug_info    0x0000000000005bbe     0x247a /Users/briangiori/dev/newt/blegpio/bin/nrf52_boot/fs/nffs/nffs.a(nffs_inode.o)
 .debug_info    0x0000000000008038      0xb4b /Users/briangiori/dev/newt/blegpio/bin/nrf52_boot/fs/nffs/nffs.a(nffs_misc.o)
 .debug_info    0x0000000000008b83      0xa2d /Users/briangiori/dev/newt/blegpio/bin/nrf52_boot/fs/nffs/nffs.a(nffs_path.o)
 .debug_info    0x00000000000095b0     0x1d96 /Users/briangiori/dev/newt/blegpio/bin/nrf52_boot/fs/nffs/nffs.a(nffs_restore.o)
 .debug_info    0x000000000000b346      0xe01 /Users/briangiori/dev/newt/blegpio/bin/nrf52_boot/fs/nffs/nffs.a(nffs_write.o)
 .debug_info    0x000000000000c147      0x3ee /Users/briangiori/dev/newt/blegpio/bin/nrf52_boot/fs/nffs/nffs.a(nffs_area.o)
 .debug_info    0x000000000000c535      0xe88 /Users/briangiori/dev/newt/blegpio/bin/nrf52_boot/fs/nffs/nffs.a(nffs_block.o)
 .debug_info    0x000000000000d3bd      0x777 /Users/briangiori/dev/newt/blegpio/bin/nrf52_boot/fs/nffs/nffs.a(nffs_crc.o)
 .debug_info    0x000000000000db34     0x11a5 /Users/briangiori/dev/newt/blegpio/bin/nrf52_boot/fs/nffs/nffs.a(nffs_gc.o)
 .debug_info    0x000000000000ecd9       0x9a /Users/briangiori/dev/newt/blegpio/bin/nrf52_boot/hw/bsp/nrf52dk/nrf52dk.a(gcc_startup_nrf52.o)
 .debug_info    0x000000000000ed73      0x3fa /Users/briangiori/dev/newt/blegpio/bin/nrf52_boot/hw/bsp/nrf52dk/nrf52dk.a(system_nrf52.o)
 .debug_info    0x000000000000f16d      0x6db /Users/briangiori/dev/newt/blegpio/bin/nrf52_boot/hw/hal/hal.a(flash_map.o)
 .debug_info    0x000000000000f848      0x653 /Users/briangiori/dev/newt/blegpio/bin/nrf52_boot/hw/hal/hal.a(hal_flash.o)
 .debug_info    0x000000000000fe9b      0x148 /Users/briangiori/dev/newt/blegpio/bin/nrf52_boot/hw/mcu/nordic/nrf52xxx/nrf52xxx.a(hal_system_start.o)
 .debug_info    0x000000000000ffe3      0x87d /Users/briangiori/dev/newt/blegpio/bin/nrf52_boot/libs/baselibc/baselibc.a(inline.o)
 .debug_info    0x0000000000010860      0x5ce /Users/briangiori/dev/newt/blegpio/bin/nrf52_boot/libs/baselibc/baselibc.a(malloc.o)
 .debug_info    0x0000000000010e2e       0xd2 /Users/briangiori/dev/newt/blegpio/bin/nrf52_boot/libs/baselibc/baselibc.a(memset.o)
 .debug_info    0x0000000000010f00       0x7e /Users/briangiori/dev/newt/blegpio/bin/nrf52_boot/libs/baselibc/baselibc.a(strchr.o)
 .debug_info    0x0000000000010f7e       0xa8 /Users/briangiori/dev/newt/blegpio/bin/nrf52_boot/libs/baselibc/baselibc.a(strcpy.o)
 .debug_info    0x0000000000011026       0x86 /Users/briangiori/dev/newt/blegpio/bin/nrf52_boot/libs/baselibc/baselibc.a(strlen.o)
 .debug_info    0x00000000000110ac       0xdd /Users/briangiori/dev/newt/blegpio/bin/nrf52_boot/libs/baselibc/baselibc.a(strncmp.o)
 .debug_info    0x0000000000011189      0xb36 /Users/briangiori/dev/newt/blegpio/bin/nrf52_boot/libs/bootutil/bootutil.a(bootutil_misc.o)
 .debug_info    0x0000000000011cbf      0xd66 /Users/briangiori/dev/newt/blegpio/bin/nrf52_boot/libs/bootutil/bootutil.a(loader.o)
 .debug_info    0x0000000000012a25      0x69c /Users/briangiori/dev/newt/blegpio/bin/nrf52_boot/libs/bootutil/bootutil.a(image_validate.o)
 .debug_info    0x00000000000130c1      0x472 /Users/briangiori/dev/newt/blegpio/bin/nrf52_boot/libs/cmsis-core/cmsis-core.a(cmsis_nvic.o)
 .debug_info    0x0000000000013533      0x6a1 /Users/briangiori/dev/newt/blegpio/bin/nrf52_boot/libs/mbedtls/mbedtls.a(sha256.o)
 .debug_info    0x0000000000013bd4      0x7dd /Users/briangiori/dev/newt/blegpio/bin/nrf52_boot/libs/os/os.a(os.o)
 .debug_info    0x00000000000143b1      0xe75 /Users/briangiori/dev/newt/blegpio/bin/nrf52_boot/libs/os/os.a(os_arch_arm.o)
 .debug_info    0x0000000000015226      0x815 /Users/briangiori/dev/newt/blegpio/bin/nrf52_boot/libs/os/os.a(os_callout.o)
 .debug_info    0x0000000000015a3b      0x737 /Users/briangiori/dev/newt/blegpio/bin/nrf52_boot/libs/os/os.a(os_eventq.o)
 .debug_info    0x0000000000016172      0x44e /Users/briangiori/dev/newt/blegpio/bin/nrf52_boot/libs/os/os.a(os_fault.o)
 .debug_info    0x00000000000165c0      0x692 /Users/briangiori/dev/newt/blegpio/bin/nrf52_boot/libs/os/os.a(os_heap.o)
 .debug_info    0x0000000000016c52      0x4bc /Users/briangiori/dev/newt/blegpio/bin/nrf52_boot/libs/os/os.a(os_mempool.o)
 .debug_info    0x000000000001710e      0x69a /Users/briangiori/dev/newt/blegpio/bin/nrf52_boot/libs/os/os.a(os_mutex.o)
 .debug_info    0x00000000000177a8      0x80a /Users/briangiori/dev/newt/blegpio/bin/nrf52_boot/libs/os/os.a(os_sched.o)
 .debug_info    0x0000000000017fb2      0x7c3 /Users/briangiori/dev/newt/blegpio/bin/nrf52_boot/libs/os/os.a(os_task.o)
 .debug_info    0x0000000000018775      0x8fe /Users/briangiori/dev/newt/blegpio/bin/nrf52_boot/libs/os/os.a(os_time.o)
 .debug_info    0x0000000000019073       0x8c /Users/briangiori/dev/newt/blegpio/bin/nrf52_boot/libs/os/os.a(HAL_CM4.o)
 .debug_info    0x00000000000190ff      0x856 /Users/briangiori/dev/newt/blegpio/bin/nrf52_boot/libs/os/os.a(os_sanity.o)
 .debug_info    0x0000000000019955      0x147 /Users/briangiori/dev/newt/blegpio/bin/nrf52_boot/libs/util/util.a(crc16.o)
 .debug_info    0x0000000000019a9c      0xa7f /Users/briangiori/dev/newt/blegpio/bin/nrf52_boot/sys/config/config.a(config.o)
 .debug_info    0x000000000001a51b      0xaed /Users/briangiori/dev/newt/blegpio/bin/nrf52_boot/sys/config/config.a(config_file.o)
 .debug_info    0x000000000001b008      0x2b1 /Users/briangiori/dev/newt/blegpio/bin/nrf52_boot/sys/config/config.a(config_line.o)
 .debug_info    0x000000000001b2b9      0x7d6 /Users/briangiori/dev/newt/blegpio/bin/nrf52_boot/sys/config/config.a(config_store.o)
 .debug_info    0x000000000001ba8f      0x89c /Users/briangiori/dev/newt/blegpio/bin/nrf52_boot/sys/log/log.a(log.o)
 .debug_info    0x000000000001c32b      0x4fd /Users/briangiori/dev/newt/blegpio/bin/nrf52_boot/sys/log/log.a(log_console.o)
 .debug_info    0x000000000001c828      0x5dc /Users/briangiori/dev/newt/blegpio/bin/nrf52_boot/fs/fs/fs.a(fs_file.o)
 .debug_info    0x000000000001ce04      0x3ee /Users/briangiori/dev/newt/blegpio/bin/nrf52_boot/fs/fs/fs.a(fs_mkdir.o)
 .debug_info    0x000000000001d1f2      0x39c /Users/briangiori/dev/newt/blegpio/bin/nrf52_boot/fs/fs/fs.a(fs_mount.o)
 .debug_info    0x000000000001d58e      0x2c3 /Users/briangiori/dev/newt/blegpio/bin/nrf52_boot/fs/fs/fs.a(fsutil.o)
 .debug_info    0x000000000001d851      0x1f8 /Users/briangiori/dev/newt/blegpio/bin/nrf52_boot/hw/bsp/nrf52dk/nrf52dk.a(hal_bsp.o)
 .debug_info    0x000000000001da49      0x22c /Users/briangiori/dev/newt/blegpio/bin/nrf52_boot/hw/bsp/nrf52dk/nrf52dk.a(libc_stubs.o)
 .debug_info    0x000000000001dc75      0x1bf /Users/briangiori/dev/newt/blegpio/bin/nrf52_boot/hw/bsp/nrf52dk/nrf52dk.a(os_bsp.o)
 .debug_info    0x000000000001de34      0x104 /Users/briangiori/dev/newt/blegpio/bin/nrf52_boot/hw/bsp/nrf52dk/nrf52dk.a(sbrk.o)
 .debug_info    0x000000000001df38      0x720 /Users/briangiori/dev/newt/blegpio/bin/nrf52_boot/hw/mcu/nordic/nrf52xxx/nrf52xxx.a(hal_flash.o)
 .debug_info    0x000000000001e658      0xdc2 /Users/briangiori/dev/newt/blegpio/bin/nrf52_boot/hw/mcu/nordic/nrf52xxx/nrf52xxx.a(hal_os_tick.o)
 .debug_info    0x000000000001f41a      0x326 /Users/briangiori/dev/newt/blegpio/bin/nrf52_boot/hw/mcu/nordic/nrf52xxx/nrf52xxx.a(hal_system.o)
 .debug_info    0x000000000001f740       0xc4 /Users/briangiori/dev/newt/blegpio/bin/nrf52_boot/libs/baselibc/baselibc.a(memcmp.o)
 .debug_info    0x000000000001f804       0xf5 /Users/briangiori/dev/newt/blegpio/bin/nrf52_boot/libs/baselibc/baselibc.a(memcpy.o)
 .debug_info    0x000000000001f8f9      0x21d /Users/briangiori/dev/newt/blegpio/bin/nrf52_boot/libs/baselibc/baselibc.a(realloc.o)
 .debug_info    0x000000000001fb16       0xc7 /Users/briangiori/dev/newt/blegpio/bin/nrf52_boot/libs/baselibc/baselibc.a(strcmp.o)
 .debug_info    0x000000000001fbdd       0xc3 /Users/briangiori/dev/newt/blegpio/bin/nrf52_boot/libs/baselibc/baselibc.a(strtok_r.o)
 .debug_info    0x000000000001fca0       0xcf /Users/briangiori/dev/newt/blegpio/bin/nrf52_boot/libs/baselibc/baselibc.a(strsep.o)
 .debug_info    0x000000000001fd6f       0x8d /Users/briangiori/dev/newt/blegpio/bin/nrf52_boot/libs/baselibc/baselibc.a(strpbrk.o)
 .debug_info    0x000000000001fdfc      0x4ac /Users/briangiori/dev/newt/blegpio/bin/nrf52_boot/libs/util/util.a(base64.o)

.debug_abbrev   0x0000000000000000     0x875c
 .debug_abbrev  0x0000000000000000      0x201 /Users/briangiori/dev/newt/blegpio/bin/nrf52_boot/apps/boot/boot.a(boot.o)
 .debug_abbrev  0x0000000000000201      0x350 /Users/briangiori/dev/newt/blegpio/bin/nrf52_boot/fs/nffs/nffs.a(nffs.o)
 .debug_abbrev  0x0000000000000551      0x3ea /Users/briangiori/dev/newt/blegpio/bin/nrf52_boot/fs/nffs/nffs.a(nffs_cache.o)
 .debug_abbrev  0x000000000000093b       0x85 /Users/briangiori/dev/newt/blegpio/bin/nrf52_boot/fs/nffs/nffs.a(nffs_config.o)
 .debug_abbrev  0x00000000000009c0      0x25b /Users/briangiori/dev/newt/blegpio/bin/nrf52_boot/fs/nffs/nffs.a(nffs_dir.o)
 .debug_abbrev  0x0000000000000c1b      0x302 /Users/briangiori/dev/newt/blegpio/bin/nrf52_boot/fs/nffs/nffs.a(nffs_file.o)
 .debug_abbrev  0x0000000000000f1d      0x22c /Users/briangiori/dev/newt/blegpio/bin/nrf52_boot/fs/nffs/nffs.a(nffs_flash.o)
 .debug_abbrev  0x0000000000001149      0x1fe /Users/briangiori/dev/newt/blegpio/bin/nrf52_boot/fs/nffs/nffs.a(nffs_format.o)
 .debug_abbrev  0x0000000000001347      0x2a2 /Users/briangiori/dev/newt/blegpio/bin/nrf52_boot/fs/nffs/nffs.a(nffs_hash.o)
 .debug_abbrev  0x00000000000015e9      0x46a /Users/briangiori/dev/newt/blegpio/bin/nrf52_boot/fs/nffs/nffs.a(nffs_inode.o)
 .debug_abbrev  0x0000000000001a53      0x325 /Users/briangiori/dev/newt/blegpio/bin/nrf52_boot/fs/nffs/nffs.a(nffs_misc.o)
 .debug_abbrev  0x0000000000001d78      0x2d3 /Users/briangiori/dev/newt/blegpio/bin/nrf52_boot/fs/nffs/nffs.a(nffs_path.o)
 .debug_abbrev  0x000000000000204b      0x37d /Users/briangiori/dev/newt/blegpio/bin/nrf52_boot/fs/nffs/nffs.a(nffs_restore.o)
 .debug_abbrev  0x00000000000023c8      0x2bb /Users/briangiori/dev/newt/blegpio/bin/nrf52_boot/fs/nffs/nffs.a(nffs_write.o)
 .debug_abbrev  0x0000000000002683      0x191 /Users/briangiori/dev/newt/blegpio/bin/nrf52_boot/fs/nffs/nffs.a(nffs_area.o)
 .debug_abbrev  0x0000000000002814      0x3bc /Users/briangiori/dev/newt/blegpio/bin/nrf52_boot/fs/nffs/nffs.a(nffs_block.o)
 .debug_abbrev  0x0000000000002bd0      0x208 /Users/briangiori/dev/newt/blegpio/bin/nrf52_boot/fs/nffs/nffs.a(nffs_crc.o)
 .debug_abbrev  0x0000000000002dd8      0x319 /Users/briangiori/dev/newt/blegpio/bin/nrf52_boot/fs/nffs/nffs.a(nffs_gc.o)
 .debug_abbrev  0x00000000000030f1       0x14 /Users/briangiori/dev/newt/blegpio/bin/nrf52_boot/hw/bsp/nrf52dk/nrf52dk.a(gcc_startup_nrf52.o)
 .debug_abbrev  0x0000000000003105      0x138 /Users/briangiori/dev/newt/blegpio/bin/nrf52_boot/hw/bsp/nrf52dk/nrf52dk.a(system_nrf52.o)
 .debug_abbrev  0x000000000000323d      0x19d /Users/briangiori/dev/newt/blegpio/bin/nrf52_boot/hw/hal/hal.a(flash_map.o)
 .debug_abbrev  0x00000000000033da      0x1ad /Users/briangiori/dev/newt/blegpio/bin/nrf52_boot/hw/hal/hal.a(hal_flash.o)
 .debug_abbrev  0x0000000000003587       0xe0 /Users/briangiori/dev/newt/blegpio/bin/nrf52_boot/hw/mcu/nordic/nrf52xxx/nrf52xxx.a(hal_system_start.o)
 .debug_abbrev  0x0000000000003667      0x1f3 /Users/briangiori/dev/newt/blegpio/bin/nrf52_boot/libs/baselibc/baselibc.a(inline.o)
 .debug_abbrev  0x000000000000385a      0x297 /Users/briangiori/dev/newt/blegpio/bin/nrf52_boot/libs/baselibc/baselibc.a(malloc.o)
 .debug_abbrev  0x0000000000003af1       0x90 /Users/briangiori/dev/newt/blegpio/bin/nrf52_boot/libs/baselibc/baselibc.a(memset.o)
 .debug_abbrev  0x0000000000003b81       0x74 /Users/briangiori/dev/newt/blegpio/bin/nrf52_boot/libs/baselibc/baselibc.a(strchr.o)
 .debug_abbrev  0x0000000000003bf5       0x92 /Users/briangiori/dev/newt/blegpio/bin/nrf52_boot/libs/baselibc/baselibc.a(strcpy.o)
 .debug_abbrev  0x0000000000003c87       0x81 /Users/briangiori/dev/newt/blegpio/bin/nrf52_boot/libs/baselibc/baselibc.a(strlen.o)
 .debug_abbrev  0x0000000000003d08       0x81 /Users/briangiori/dev/newt/blegpio/bin/nrf52_boot/libs/baselibc/baselibc.a(strncmp.o)
 .debug_abbrev  0x0000000000003d89      0x30b /Users/briangiori/dev/newt/blegpio/bin/nrf52_boot/libs/bootutil/bootutil.a(bootutil_misc.o)
 .debug_abbrev  0x0000000000004094      0x2e1 /Users/briangiori/dev/newt/blegpio/bin/nrf52_boot/libs/bootutil/bootutil.a(loader.o)
 .debug_abbrev  0x0000000000004375      0x20d /Users/briangiori/dev/newt/blegpio/bin/nrf52_boot/libs/bootutil/bootutil.a(image_validate.o)
 .debug_abbrev  0x0000000000004582      0x170 /Users/briangiori/dev/newt/blegpio/bin/nrf52_boot/libs/cmsis-core/cmsis-core.a(cmsis_nvic.o)
 .debug_abbrev  0x00000000000046f2      0x295 /Users/briangiori/dev/newt/blegpio/bin/nrf52_boot/libs/mbedtls/mbedtls.a(sha256.o)
 .debug_abbrev  0x0000000000004987      0x1c3 /Users/briangiori/dev/newt/blegpio/bin/nrf52_boot/libs/os/os.a(os.o)
 .debug_abbrev  0x0000000000004b4a      0x3b5 /Users/briangiori/dev/newt/blegpio/bin/nrf52_boot/libs/os/os.a(os_arch_arm.o)
 .debug_abbrev  0x0000000000004eff      0x23a /Users/briangiori/dev/newt/blegpio/bin/nrf52_boot/libs/os/os.a(os_callout.o)
 .debug_abbrev  0x0000000000005139      0x202 /Users/briangiori/dev/newt/blegpio/bin/nrf52_boot/libs/os/os.a(os_eventq.o)
 .debug_abbrev  0x000000000000533b      0x16d /Users/briangiori/dev/newt/blegpio/bin/nrf52_boot/libs/os/os.a(os_fault.o)
 .debug_abbrev  0x00000000000054a8      0x219 /Users/briangiori/dev/newt/blegpio/bin/nrf52_boot/libs/os/os.a(os_heap.o)
 .debug_abbrev  0x00000000000056c1      0x191 /Users/briangiori/dev/newt/blegpio/bin/nrf52_boot/libs/os/os.a(os_mempool.o)
 .debug_abbrev  0x0000000000005852      0x1b7 /Users/briangiori/dev/newt/blegpio/bin/nrf52_boot/libs/os/os.a(os_mutex.o)
 .debug_abbrev  0x0000000000005a09      0x303 /Users/briangiori/dev/newt/blegpio/bin/nrf52_boot/libs/os/os.a(os_sched.o)
 .debug_abbrev  0x0000000000005d0c      0x263 /Users/briangiori/dev/newt/blegpio/bin/nrf52_boot/libs/os/os.a(os_task.o)
 .debug_abbrev  0x0000000000005f6f      0x2c5 /Users/briangiori/dev/newt/blegpio/bin/nrf52_boot/libs/os/os.a(os_time.o)
 .debug_abbrev  0x0000000000006234       0x14 /Users/briangiori/dev/newt/blegpio/bin/nrf52_boot/libs/os/os.a(HAL_CM4.o)
 .debug_abbrev  0x0000000000006248      0x26a /Users/briangiori/dev/newt/blegpio/bin/nrf52_boot/libs/os/os.a(os_sanity.o)
 .debug_abbrev  0x00000000000064b2       0xc5 /Users/briangiori/dev/newt/blegpio/bin/nrf52_boot/libs/util/util.a(crc16.o)
 .debug_abbrev  0x0000000000006577      0x276 /Users/briangiori/dev/newt/blegpio/bin/nrf52_boot/sys/config/config.a(config.o)
 .debug_abbrev  0x00000000000067ed      0x281 /Users/briangiori/dev/newt/blegpio/bin/nrf52_boot/sys/config/config.a(config_file.o)
 .debug_abbrev  0x0000000000006a6e      0x16e /Users/briangiori/dev/newt/blegpio/bin/nrf52_boot/sys/config/config.a(config_line.o)
 .debug_abbrev  0x0000000000006bdc      0x295 /Users/briangiori/dev/newt/blegpio/bin/nrf52_boot/sys/config/config.a(config_store.o)
 .debug_abbrev  0x0000000000006e71      0x264 /Users/briangiori/dev/newt/blegpio/bin/nrf52_boot/sys/log/log.a(log.o)
 .debug_abbrev  0x00000000000070d5      0x18e /Users/briangiori/dev/newt/blegpio/bin/nrf52_boot/sys/log/log.a(log_console.o)
 .debug_abbrev  0x0000000000007263       0xef /Users/briangiori/dev/newt/blegpio/bin/nrf52_boot/fs/fs/fs.a(fs_file.o)
 .debug_abbrev  0x0000000000007352       0xef /Users/briangiori/dev/newt/blegpio/bin/nrf52_boot/fs/fs/fs.a(fs_mkdir.o)
 .debug_abbrev  0x0000000000007441       0xc8 /Users/briangiori/dev/newt/blegpio/bin/nrf52_boot/fs/fs/fs.a(fs_mount.o)
 .debug_abbrev  0x0000000000007509      0x123 /Users/briangiori/dev/newt/blegpio/bin/nrf52_boot/fs/fs/fs.a(fsutil.o)
 .debug_abbrev  0x000000000000762c       0xfb /Users/briangiori/dev/newt/blegpio/bin/nrf52_boot/hw/bsp/nrf52dk/nrf52dk.a(hal_bsp.o)
 .debug_abbrev  0x0000000000007727       0xbb /Users/briangiori/dev/newt/blegpio/bin/nrf52_boot/hw/bsp/nrf52dk/nrf52dk.a(libc_stubs.o)
 .debug_abbrev  0x00000000000077e2      0x117 /Users/briangiori/dev/newt/blegpio/bin/nrf52_boot/hw/bsp/nrf52dk/nrf52dk.a(os_bsp.o)
 .debug_abbrev  0x00000000000078f9       0xb2 /Users/briangiori/dev/newt/blegpio/bin/nrf52_boot/hw/bsp/nrf52dk/nrf52dk.a(sbrk.o)
 .debug_abbrev  0x00000000000079ab      0x2aa /Users/briangiori/dev/newt/blegpio/bin/nrf52_boot/hw/mcu/nordic/nrf52xxx/nrf52xxx.a(hal_flash.o)
 .debug_abbrev  0x0000000000007c55      0x319 /Users/briangiori/dev/newt/blegpio/bin/nrf52_boot/hw/mcu/nordic/nrf52xxx/nrf52xxx.a(hal_os_tick.o)
 .debug_abbrev  0x0000000000007f6e      0x119 /Users/briangiori/dev/newt/blegpio/bin/nrf52_boot/hw/mcu/nordic/nrf52xxx/nrf52xxx.a(hal_system.o)
 .debug_abbrev  0x0000000000008087       0x86 /Users/briangiori/dev/newt/blegpio/bin/nrf52_boot/libs/baselibc/baselibc.a(memcmp.o)
 .debug_abbrev  0x000000000000810d       0x9c /Users/briangiori/dev/newt/blegpio/bin/nrf52_boot/libs/baselibc/baselibc.a(memcpy.o)
 .debug_abbrev  0x00000000000081a9      0x152 /Users/briangiori/dev/newt/blegpio/bin/nrf52_boot/libs/baselibc/baselibc.a(realloc.o)
 .debug_abbrev  0x00000000000082fb       0x83 /Users/briangiori/dev/newt/blegpio/bin/nrf52_boot/libs/baselibc/baselibc.a(strcmp.o)
 .debug_abbrev  0x000000000000837e       0xa5 /Users/briangiori/dev/newt/blegpio/bin/nrf52_boot/libs/baselibc/baselibc.a(strtok_r.o)
 .debug_abbrev  0x0000000000008423       0xb4 /Users/briangiori/dev/newt/blegpio/bin/nrf52_boot/libs/baselibc/baselibc.a(strsep.o)
 .debug_abbrev  0x00000000000084d7       0x83 /Users/briangiori/dev/newt/blegpio/bin/nrf52_boot/libs/baselibc/baselibc.a(strpbrk.o)
 .debug_abbrev  0x000000000000855a      0x202 /Users/briangiori/dev/newt/blegpio/bin/nrf52_boot/libs/util/util.a(base64.o)

.debug_loc      0x0000000000000000     0xef0f
 .debug_loc     0x0000000000000000      0x17d /Users/briangiori/dev/newt/blegpio/bin/nrf52_boot/apps/boot/boot.a(boot.o)
 .debug_loc     0x000000000000017d      0x9af /Users/briangiori/dev/newt/blegpio/bin/nrf52_boot/fs/nffs/nffs.a(nffs.o)
 .debug_loc     0x0000000000000b2c      0x781 /Users/briangiori/dev/newt/blegpio/bin/nrf52_boot/fs/nffs/nffs.a(nffs_cache.o)
 .debug_loc     0x00000000000012ad      0x1b2 /Users/briangiori/dev/newt/blegpio/bin/nrf52_boot/fs/nffs/nffs.a(nffs_dir.o)
 .debug_loc     0x000000000000145f      0x3e3 /Users/briangiori/dev/newt/blegpio/bin/nrf52_boot/fs/nffs/nffs.a(nffs_file.o)
 .debug_loc     0x0000000000001842      0x4d6 /Users/briangiori/dev/newt/blegpio/bin/nrf52_boot/fs/nffs/nffs.a(nffs_flash.o)
 .debug_loc     0x0000000000001d18      0x23e /Users/briangiori/dev/newt/blegpio/bin/nrf52_boot/fs/nffs/nffs.a(nffs_format.o)
 .debug_loc     0x0000000000001f56      0x478 /Users/briangiori/dev/newt/blegpio/bin/nrf52_boot/fs/nffs/nffs.a(nffs_hash.o)
 .debug_loc     0x00000000000023ce     0x18ce /Users/briangiori/dev/newt/blegpio/bin/nrf52_boot/fs/nffs/nffs.a(nffs_inode.o)
 .debug_loc     0x0000000000003c9c      0x4c8 /Users/briangiori/dev/newt/blegpio/bin/nrf52_boot/fs/nffs/nffs.a(nffs_misc.o)
 .debug_loc     0x0000000000004164      0x55d /Users/briangiori/dev/newt/blegpio/bin/nrf52_boot/fs/nffs/nffs.a(nffs_path.o)
 .debug_loc     0x00000000000046c1      0xb42 /Users/briangiori/dev/newt/blegpio/bin/nrf52_boot/fs/nffs/nffs.a(nffs_restore.o)
 .debug_loc     0x0000000000005203      0x785 /Users/briangiori/dev/newt/blegpio/bin/nrf52_boot/fs/nffs/nffs.a(nffs_write.o)
 .debug_loc     0x0000000000005988      0x1de /Users/briangiori/dev/newt/blegpio/bin/nrf52_boot/fs/nffs/nffs.a(nffs_area.o)
 .debug_loc     0x0000000000005b66      0x519 /Users/briangiori/dev/newt/blegpio/bin/nrf52_boot/fs/nffs/nffs.a(nffs_block.o)
 .debug_loc     0x000000000000607f      0x3d3 /Users/briangiori/dev/newt/blegpio/bin/nrf52_boot/fs/nffs/nffs.a(nffs_crc.o)
 .debug_loc     0x0000000000006452      0x9ab /Users/briangiori/dev/newt/blegpio/bin/nrf52_boot/fs/nffs/nffs.a(nffs_gc.o)
 .debug_loc     0x0000000000006dfd      0x543 /Users/briangiori/dev/newt/blegpio/bin/nrf52_boot/hw/hal/hal.a(flash_map.o)
 .debug_loc     0x0000000000007340      0x4f0 /Users/briangiori/dev/newt/blegpio/bin/nrf52_boot/hw/hal/hal.a(hal_flash.o)
 .debug_loc     0x0000000000007830       0x49 /Users/briangiori/dev/newt/blegpio/bin/nrf52_boot/hw/mcu/nordic/nrf52xxx/nrf52xxx.a(hal_system_start.o)
 .debug_loc     0x0000000000007879      0x606 /Users/briangiori/dev/newt/blegpio/bin/nrf52_boot/libs/baselibc/baselibc.a(inline.o)
 .debug_loc     0x0000000000007e7f      0x4f3 /Users/briangiori/dev/newt/blegpio/bin/nrf52_boot/libs/baselibc/baselibc.a(malloc.o)
 .debug_loc     0x0000000000008372       0x57 /Users/briangiori/dev/newt/blegpio/bin/nrf52_boot/libs/baselibc/baselibc.a(memset.o)
 .debug_loc     0x00000000000083c9       0x29 /Users/briangiori/dev/newt/blegpio/bin/nrf52_boot/libs/baselibc/baselibc.a(strchr.o)
 .debug_loc     0x00000000000083f2       0x54 /Users/briangiori/dev/newt/blegpio/bin/nrf52_boot/libs/baselibc/baselibc.a(strcpy.o)
 .debug_loc     0x0000000000008446       0x3f /Users/briangiori/dev/newt/blegpio/bin/nrf52_boot/libs/baselibc/baselibc.a(strlen.o)
 .debug_loc     0x0000000000008485      0x119 /Users/briangiori/dev/newt/blegpio/bin/nrf52_boot/libs/baselibc/baselibc.a(strncmp.o)
 .debug_loc     0x000000000000859e      0x4fc /Users/briangiori/dev/newt/blegpio/bin/nrf52_boot/libs/bootutil/bootutil.a(bootutil_misc.o)
 .debug_loc     0x0000000000008a9a      0x834 /Users/briangiori/dev/newt/blegpio/bin/nrf52_boot/libs/bootutil/bootutil.a(loader.o)
 .debug_loc     0x00000000000092ce      0x259 /Users/briangiori/dev/newt/blegpio/bin/nrf52_boot/libs/bootutil/bootutil.a(image_validate.o)
 .debug_loc     0x0000000000009527       0x42 /Users/briangiori/dev/newt/blegpio/bin/nrf52_boot/libs/cmsis-core/cmsis-core.a(cmsis_nvic.o)
 .debug_loc     0x0000000000009569     0x1050 /Users/briangiori/dev/newt/blegpio/bin/nrf52_boot/libs/mbedtls/mbedtls.a(sha256.o)
 .debug_loc     0x000000000000a5b9       0xe8 /Users/briangiori/dev/newt/blegpio/bin/nrf52_boot/libs/os/os.a(os.o)
 .debug_loc     0x000000000000a6a1      0x23e /Users/briangiori/dev/newt/blegpio/bin/nrf52_boot/libs/os/os.a(os_arch_arm.o)
 .debug_loc     0x000000000000a8df      0x290 /Users/briangiori/dev/newt/blegpio/bin/nrf52_boot/libs/os/os.a(os_callout.o)
 .debug_loc     0x000000000000ab6f      0x391 /Users/briangiori/dev/newt/blegpio/bin/nrf52_boot/libs/os/os.a(os_eventq.o)
 .debug_loc     0x000000000000af00       0xa5 /Users/briangiori/dev/newt/blegpio/bin/nrf52_boot/libs/os/os.a(os_fault.o)
 .debug_loc     0x000000000000afa5      0x10e /Users/briangiori/dev/newt/blegpio/bin/nrf52_boot/libs/os/os.a(os_heap.o)
 .debug_loc     0x000000000000b0b3      0x387 /Users/briangiori/dev/newt/blegpio/bin/nrf52_boot/libs/os/os.a(os_mempool.o)
 .debug_loc     0x000000000000b43a      0x286 /Users/briangiori/dev/newt/blegpio/bin/nrf52_boot/libs/os/os.a(os_mutex.o)
 .debug_loc     0x000000000000b6c0      0x3e4 /Users/briangiori/dev/newt/blegpio/bin/nrf52_boot/libs/os/os.a(os_sched.o)
 .debug_loc     0x000000000000baa4      0x2ba /Users/briangiori/dev/newt/blegpio/bin/nrf52_boot/libs/os/os.a(os_task.o)
 .debug_loc     0x000000000000bd5e      0x3f2 /Users/briangiori/dev/newt/blegpio/bin/nrf52_boot/libs/os/os.a(os_time.o)
 .debug_loc     0x000000000000c150      0x1f6 /Users/briangiori/dev/newt/blegpio/bin/nrf52_boot/libs/os/os.a(os_sanity.o)
 .debug_loc     0x000000000000c346       0xd0 /Users/briangiori/dev/newt/blegpio/bin/nrf52_boot/libs/util/util.a(crc16.o)
 .debug_loc     0x000000000000c416      0x697 /Users/briangiori/dev/newt/blegpio/bin/nrf52_boot/sys/config/config.a(config.o)
 .debug_loc     0x000000000000caad      0x4f4 /Users/briangiori/dev/newt/blegpio/bin/nrf52_boot/sys/config/config.a(config_file.o)
 .debug_loc     0x000000000000cfa1      0x21d /Users/briangiori/dev/newt/blegpio/bin/nrf52_boot/sys/config/config.a(config_line.o)
 .debug_loc     0x000000000000d1be      0x2ba /Users/briangiori/dev/newt/blegpio/bin/nrf52_boot/sys/config/config.a(config_store.o)
 .debug_loc     0x000000000000d478      0x3d3 /Users/briangiori/dev/newt/blegpio/bin/nrf52_boot/sys/log/log.a(log.o)
 .debug_loc     0x000000000000d84b       0xa2 /Users/briangiori/dev/newt/blegpio/bin/nrf52_boot/sys/log/log.a(log_console.o)
 .debug_loc     0x000000000000d8ed      0x231 /Users/briangiori/dev/newt/blegpio/bin/nrf52_boot/fs/fs/fs.a(fs_file.o)
 .debug_loc     0x000000000000db1e       0x63 /Users/briangiori/dev/newt/blegpio/bin/nrf52_boot/fs/fs/fs.a(fs_mkdir.o)
 .debug_loc     0x000000000000db81       0x3b /Users/briangiori/dev/newt/blegpio/bin/nrf52_boot/fs/fs/fs.a(fs_mount.o)
 .debug_loc     0x000000000000dbbc      0x143 /Users/briangiori/dev/newt/blegpio/bin/nrf52_boot/fs/fs/fs.a(fsutil.o)
 .debug_loc     0x000000000000dcff       0x42 /Users/briangiori/dev/newt/blegpio/bin/nrf52_boot/hw/bsp/nrf52dk/nrf52dk.a(hal_bsp.o)
 .debug_loc     0x000000000000dd41      0x108 /Users/briangiori/dev/newt/blegpio/bin/nrf52_boot/hw/bsp/nrf52dk/nrf52dk.a(libc_stubs.o)
 .debug_loc     0x000000000000de49       0x97 /Users/briangiori/dev/newt/blegpio/bin/nrf52_boot/hw/bsp/nrf52dk/nrf52dk.a(sbrk.o)
 .debug_loc     0x000000000000dee0      0x31a /Users/briangiori/dev/newt/blegpio/bin/nrf52_boot/hw/mcu/nordic/nrf52xxx/nrf52xxx.a(hal_flash.o)
 .debug_loc     0x000000000000e1fa      0x277 /Users/briangiori/dev/newt/blegpio/bin/nrf52_boot/hw/mcu/nordic/nrf52xxx/nrf52xxx.a(hal_os_tick.o)
 .debug_loc     0x000000000000e471      0x106 /Users/briangiori/dev/newt/blegpio/bin/nrf52_boot/libs/baselibc/baselibc.a(memcmp.o)
 .debug_loc     0x000000000000e577       0x87 /Users/briangiori/dev/newt/blegpio/bin/nrf52_boot/libs/baselibc/baselibc.a(memcpy.o)
 .debug_loc     0x000000000000e5fe      0x12a /Users/briangiori/dev/newt/blegpio/bin/nrf52_boot/libs/baselibc/baselibc.a(realloc.o)
 .debug_loc     0x000000000000e728       0x23 /Users/briangiori/dev/newt/blegpio/bin/nrf52_boot/libs/baselibc/baselibc.a(strcmp.o)
 .debug_loc     0x000000000000e74b       0x5a /Users/briangiori/dev/newt/blegpio/bin/nrf52_boot/libs/baselibc/baselibc.a(strtok_r.o)
 .debug_loc     0x000000000000e7a5       0x6a /Users/briangiori/dev/newt/blegpio/bin/nrf52_boot/libs/baselibc/baselibc.a(strsep.o)
 .debug_loc     0x000000000000e80f       0x81 /Users/briangiori/dev/newt/blegpio/bin/nrf52_boot/libs/baselibc/baselibc.a(strpbrk.o)
 .debug_loc     0x000000000000e890      0x67f /Users/briangiori/dev/newt/blegpio/bin/nrf52_boot/libs/util/util.a(base64.o)

.debug_aranges  0x0000000000000000     0x13a0
 .debug_aranges
                0x0000000000000000       0x20 /Users/briangiori/dev/newt/blegpio/bin/nrf52_boot/apps/boot/boot.a(boot.o)
 .debug_aranges
                0x0000000000000020       0xb8 /Users/briangiori/dev/newt/blegpio/bin/nrf52_boot/fs/nffs/nffs.a(nffs.o)
 .debug_aranges
                0x00000000000000d8       0x78 /Users/briangiori/dev/newt/blegpio/bin/nrf52_boot/fs/nffs/nffs.a(nffs_cache.o)
 .debug_aranges
                0x0000000000000150       0x20 /Users/briangiori/dev/newt/blegpio/bin/nrf52_boot/fs/nffs/nffs.a(nffs_config.o)
 .debug_aranges
                0x0000000000000170       0x30 /Users/briangiori/dev/newt/blegpio/bin/nrf52_boot/fs/nffs/nffs.a(nffs_dir.o)
 .debug_aranges
                0x00000000000001a0       0x40 /Users/briangiori/dev/newt/blegpio/bin/nrf52_boot/fs/nffs/nffs.a(nffs_file.o)
 .debug_aranges
                0x00000000000001e0       0x40 /Users/briangiori/dev/newt/blegpio/bin/nrf52_boot/fs/nffs/nffs.a(nffs_flash.o)
 .debug_aranges
                0x0000000000000220       0x30 /Users/briangiori/dev/newt/blegpio/bin/nrf52_boot/fs/nffs/nffs.a(nffs_format.o)
 .debug_aranges
                0x0000000000000250       0x80 /Users/briangiori/dev/newt/blegpio/bin/nrf52_boot/fs/nffs/nffs.a(nffs_hash.o)
 .debug_aranges
                0x00000000000002d0      0x120 /Users/briangiori/dev/newt/blegpio/bin/nrf52_boot/fs/nffs/nffs.a(nffs_inode.o)
 .debug_aranges
                0x00000000000003f0       0x60 /Users/briangiori/dev/newt/blegpio/bin/nrf52_boot/fs/nffs/nffs.a(nffs_misc.o)
 .debug_aranges
                0x0000000000000450       0x58 /Users/briangiori/dev/newt/blegpio/bin/nrf52_boot/fs/nffs/nffs.a(nffs_path.o)
 .debug_aranges
                0x00000000000004a8       0x38 /Users/briangiori/dev/newt/blegpio/bin/nrf52_boot/fs/nffs/nffs.a(nffs_restore.o)
 .debug_aranges
                0x00000000000004e0       0x20 /Users/briangiori/dev/newt/blegpio/bin/nrf52_boot/fs/nffs/nffs.a(nffs_write.o)
 .debug_aranges
                0x0000000000000500       0x48 /Users/briangiori/dev/newt/blegpio/bin/nrf52_boot/fs/nffs/nffs.a(nffs_area.o)
 .debug_aranges
                0x0000000000000548       0x78 /Users/briangiori/dev/newt/blegpio/bin/nrf52_boot/fs/nffs/nffs.a(nffs_block.o)
 .debug_aranges
                0x00000000000005c0       0x48 /Users/briangiori/dev/newt/blegpio/bin/nrf52_boot/fs/nffs/nffs.a(nffs_crc.o)
 .debug_aranges
                0x0000000000000608       0x40 /Users/briangiori/dev/newt/blegpio/bin/nrf52_boot/fs/nffs/nffs.a(nffs_gc.o)
 .debug_aranges
                0x0000000000000648       0x20 /Users/briangiori/dev/newt/blegpio/bin/nrf52_boot/hw/bsp/nrf52dk/nrf52dk.a(gcc_startup_nrf52.o)
 .debug_aranges
                0x0000000000000668       0x28 /Users/briangiori/dev/newt/blegpio/bin/nrf52_boot/hw/bsp/nrf52dk/nrf52dk.a(system_nrf52.o)
 .debug_aranges
                0x0000000000000690       0x60 /Users/briangiori/dev/newt/blegpio/bin/nrf52_boot/hw/hal/hal.a(flash_map.o)
 .debug_aranges
                0x00000000000006f0       0x58 /Users/briangiori/dev/newt/blegpio/bin/nrf52_boot/hw/hal/hal.a(hal_flash.o)
 .debug_aranges
                0x0000000000000748       0x20 /Users/briangiori/dev/newt/blegpio/bin/nrf52_boot/hw/mcu/nordic/nrf52xxx/nrf52xxx.a(hal_system_start.o)
 .debug_aranges
                0x0000000000000768      0x110 /Users/briangiori/dev/newt/blegpio/bin/nrf52_boot/libs/baselibc/baselibc.a(inline.o)
 .debug_aranges
                0x0000000000000878       0x58 /Users/briangiori/dev/newt/blegpio/bin/nrf52_boot/libs/baselibc/baselibc.a(malloc.o)
 .debug_aranges
                0x00000000000008d0       0x20 /Users/briangiori/dev/newt/blegpio/bin/nrf52_boot/libs/baselibc/baselibc.a(memset.o)
 .debug_aranges
                0x00000000000008f0       0x20 /Users/briangiori/dev/newt/blegpio/bin/nrf52_boot/libs/baselibc/baselibc.a(strchr.o)
 .debug_aranges
                0x0000000000000910       0x20 /Users/briangiori/dev/newt/blegpio/bin/nrf52_boot/libs/baselibc/baselibc.a(strcpy.o)
 .debug_aranges
                0x0000000000000930       0x20 /Users/briangiori/dev/newt/blegpio/bin/nrf52_boot/libs/baselibc/baselibc.a(strlen.o)
 .debug_aranges
                0x0000000000000950       0x20 /Users/briangiori/dev/newt/blegpio/bin/nrf52_boot/libs/baselibc/baselibc.a(strncmp.o)
 .debug_aranges
                0x0000000000000970       0x68 /Users/briangiori/dev/newt/blegpio/bin/nrf52_boot/libs/bootutil/bootutil.a(bootutil_misc.o)
 .debug_aranges
                0x00000000000009d8       0x48 /Users/briangiori/dev/newt/blegpio/bin/nrf52_boot/libs/bootutil/bootutil.a(loader.o)
 .debug_aranges
                0x0000000000000a20       0x20 /Users/briangiori/dev/newt/blegpio/bin/nrf52_boot/libs/bootutil/bootutil.a(image_validate.o)
 .debug_aranges
                0x0000000000000a40       0x30 /Users/briangiori/dev/newt/blegpio/bin/nrf52_boot/libs/cmsis-core/cmsis-core.a(cmsis_nvic.o)
 .debug_aranges
                0x0000000000000a70       0x60 /Users/briangiori/dev/newt/blegpio/bin/nrf52_boot/libs/mbedtls/mbedtls.a(sha256.o)
 .debug_aranges
                0x0000000000000ad0       0x40 /Users/briangiori/dev/newt/blegpio/bin/nrf52_boot/libs/os/os.a(os.o)
 .debug_aranges
                0x0000000000000b10       0x68 /Users/briangiori/dev/newt/blegpio/bin/nrf52_boot/libs/os/os.a(os_arch_arm.o)
 .debug_aranges
                0x0000000000000b78       0x40 /Users/briangiori/dev/newt/blegpio/bin/nrf52_boot/libs/os/os.a(os_callout.o)
 .debug_aranges
                0x0000000000000bb8       0x40 /Users/briangiori/dev/newt/blegpio/bin/nrf52_boot/libs/os/os.a(os_eventq.o)
 .debug_aranges
                0x0000000000000bf8       0x28 /Users/briangiori/dev/newt/blegpio/bin/nrf52_boot/libs/os/os.a(os_fault.o)
 .debug_aranges
                0x0000000000000c20       0x40 /Users/briangiori/dev/newt/blegpio/bin/nrf52_boot/libs/os/os.a(os_heap.o)
 .debug_aranges
                0x0000000000000c60       0x38 /Users/briangiori/dev/newt/blegpio/bin/nrf52_boot/libs/os/os.a(os_mempool.o)
 .debug_aranges
                0x0000000000000c98       0x30 /Users/briangiori/dev/newt/blegpio/bin/nrf52_boot/libs/os/os.a(os_mutex.o)
 .debug_aranges
                0x0000000000000cc8       0x70 /Users/briangiori/dev/newt/blegpio/bin/nrf52_boot/libs/os/os.a(os_sched.o)
 .debug_aranges
                0x0000000000000d38       0x30 /Users/briangiori/dev/newt/blegpio/bin/nrf52_boot/libs/os/os.a(os_task.o)
 .debug_aranges
                0x0000000000000d68       0x58 /Users/briangiori/dev/newt/blegpio/bin/nrf52_boot/libs/os/os.a(os_time.o)
 .debug_aranges
                0x0000000000000dc0       0x20 /Users/briangiori/dev/newt/blegpio/bin/nrf52_boot/libs/os/os.a(HAL_CM4.o)
 .debug_aranges
                0x0000000000000de0       0x58 /Users/briangiori/dev/newt/blegpio/bin/nrf52_boot/libs/os/os.a(os_sanity.o)
 .debug_aranges
                0x0000000000000e38       0x20 /Users/briangiori/dev/newt/blegpio/bin/nrf52_boot/libs/util/util.a(crc16.o)
 .debug_aranges
                0x0000000000000e58       0x78 /Users/briangiori/dev/newt/blegpio/bin/nrf52_boot/sys/config/config.a(config.o)
 .debug_aranges
                0x0000000000000ed0       0x48 /Users/briangiori/dev/newt/blegpio/bin/nrf52_boot/sys/config/config.a(config_file.o)
 .debug_aranges
                0x0000000000000f18       0x28 /Users/briangiori/dev/newt/blegpio/bin/nrf52_boot/sys/config/config.a(config_line.o)
 .debug_aranges
                0x0000000000000f40       0x58 /Users/briangiori/dev/newt/blegpio/bin/nrf52_boot/sys/config/config.a(config_store.o)
 .debug_aranges
                0x0000000000000f98       0x58 /Users/briangiori/dev/newt/blegpio/bin/nrf52_boot/sys/log/log.a(log.o)
 .debug_aranges
                0x0000000000000ff0       0x40 /Users/briangiori/dev/newt/blegpio/bin/nrf52_boot/sys/log/log.a(log_console.o)
 .debug_aranges
                0x0000000000001030       0x58 /Users/briangiori/dev/newt/blegpio/bin/nrf52_boot/fs/fs/fs.a(fs_file.o)
 .debug_aranges
                0x0000000000001088       0x28 /Users/briangiori/dev/newt/blegpio/bin/nrf52_boot/fs/fs/fs.a(fs_mkdir.o)
 .debug_aranges
                0x00000000000010b0       0x20 /Users/briangiori/dev/newt/blegpio/bin/nrf52_boot/fs/fs/fs.a(fs_mount.o)
 .debug_aranges
                0x00000000000010d0       0x28 /Users/briangiori/dev/newt/blegpio/bin/nrf52_boot/fs/fs/fs.a(fsutil.o)
 .debug_aranges
                0x00000000000010f8       0x30 /Users/briangiori/dev/newt/blegpio/bin/nrf52_boot/hw/bsp/nrf52dk/nrf52dk.a(hal_bsp.o)
 .debug_aranges
                0x0000000000001128       0x60 /Users/briangiori/dev/newt/blegpio/bin/nrf52_boot/hw/bsp/nrf52dk/nrf52dk.a(libc_stubs.o)
 .debug_aranges
                0x0000000000001188       0x28 /Users/briangiori/dev/newt/blegpio/bin/nrf52_boot/hw/bsp/nrf52dk/nrf52dk.a(os_bsp.o)
 .debug_aranges
                0x00000000000011b0       0x20 /Users/briangiori/dev/newt/blegpio/bin/nrf52_boot/hw/bsp/nrf52dk/nrf52dk.a(sbrk.o)
 .debug_aranges
                0x00000000000011d0       0x48 /Users/briangiori/dev/newt/blegpio/bin/nrf52_boot/hw/mcu/nordic/nrf52xxx/nrf52xxx.a(hal_flash.o)
 .debug_aranges
                0x0000000000001218       0x48 /Users/briangiori/dev/newt/blegpio/bin/nrf52_boot/hw/mcu/nordic/nrf52xxx/nrf52xxx.a(hal_os_tick.o)
 .debug_aranges
                0x0000000000001260       0x28 /Users/briangiori/dev/newt/blegpio/bin/nrf52_boot/hw/mcu/nordic/nrf52xxx/nrf52xxx.a(hal_system.o)
 .debug_aranges
                0x0000000000001288       0x20 /Users/briangiori/dev/newt/blegpio/bin/nrf52_boot/libs/baselibc/baselibc.a(memcmp.o)
 .debug_aranges
                0x00000000000012a8       0x20 /Users/briangiori/dev/newt/blegpio/bin/nrf52_boot/libs/baselibc/baselibc.a(memcpy.o)
 .debug_aranges
                0x00000000000012c8       0x20 /Users/briangiori/dev/newt/blegpio/bin/nrf52_boot/libs/baselibc/baselibc.a(realloc.o)
 .debug_aranges
                0x00000000000012e8       0x20 /Users/briangiori/dev/newt/blegpio/bin/nrf52_boot/libs/baselibc/baselibc.a(strcmp.o)
 .debug_aranges
                0x0000000000001308       0x20 /Users/briangiori/dev/newt/blegpio/bin/nrf52_boot/libs/baselibc/baselibc.a(strtok_r.o)
 .debug_aranges
                0x0000000000001328       0x20 /Users/briangiori/dev/newt/blegpio/bin/nrf52_boot/libs/baselibc/baselibc.a(strsep.o)
 .debug_aranges
                0x0000000000001348       0x20 /Users/briangiori/dev/newt/blegpio/bin/nrf52_boot/libs/baselibc/baselibc.a(strpbrk.o)
 .debug_aranges
                0x0000000000001368       0x38 /Users/briangiori/dev/newt/blegpio/bin/nrf52_boot/libs/util/util.a(base64.o)

.debug_ranges   0x0000000000000000     0x1450
 .debug_ranges  0x0000000000000000       0x10 /Users/briangiori/dev/newt/blegpio/bin/nrf52_boot/apps/boot/boot.a(boot.o)
 .debug_ranges  0x0000000000000010       0xa8 /Users/briangiori/dev/newt/blegpio/bin/nrf52_boot/fs/nffs/nffs.a(nffs.o)
 .debug_ranges  0x00000000000000b8      0x110 /Users/briangiori/dev/newt/blegpio/bin/nrf52_boot/fs/nffs/nffs.a(nffs_cache.o)
 .debug_ranges  0x00000000000001c8       0x10 /Users/briangiori/dev/newt/blegpio/bin/nrf52_boot/fs/nffs/nffs.a(nffs_config.o)
 .debug_ranges  0x00000000000001d8       0x38 /Users/briangiori/dev/newt/blegpio/bin/nrf52_boot/fs/nffs/nffs.a(nffs_dir.o)
 .debug_ranges  0x0000000000000210       0x30 /Users/briangiori/dev/newt/blegpio/bin/nrf52_boot/fs/nffs/nffs.a(nffs_file.o)
 .debug_ranges  0x0000000000000240       0x30 /Users/briangiori/dev/newt/blegpio/bin/nrf52_boot/fs/nffs/nffs.a(nffs_flash.o)
 .debug_ranges  0x0000000000000270       0x20 /Users/briangiori/dev/newt/blegpio/bin/nrf52_boot/fs/nffs/nffs.a(nffs_format.o)
 .debug_ranges  0x0000000000000290       0x70 /Users/briangiori/dev/newt/blegpio/bin/nrf52_boot/fs/nffs/nffs.a(nffs_hash.o)
 .debug_ranges  0x0000000000000300      0x1a0 /Users/briangiori/dev/newt/blegpio/bin/nrf52_boot/fs/nffs/nffs.a(nffs_inode.o)
 .debug_ranges  0x00000000000004a0       0x70 /Users/briangiori/dev/newt/blegpio/bin/nrf52_boot/fs/nffs/nffs.a(nffs_misc.o)
 .debug_ranges  0x0000000000000510       0xb8 /Users/briangiori/dev/newt/blegpio/bin/nrf52_boot/fs/nffs/nffs.a(nffs_path.o)
 .debug_ranges  0x00000000000005c8       0xf0 /Users/briangiori/dev/newt/blegpio/bin/nrf52_boot/fs/nffs/nffs.a(nffs_restore.o)
 .debug_ranges  0x00000000000006b8       0x80 /Users/briangiori/dev/newt/blegpio/bin/nrf52_boot/fs/nffs/nffs.a(nffs_write.o)
 .debug_ranges  0x0000000000000738       0x38 /Users/briangiori/dev/newt/blegpio/bin/nrf52_boot/fs/nffs/nffs.a(nffs_area.o)
 .debug_ranges  0x0000000000000770       0xb8 /Users/briangiori/dev/newt/blegpio/bin/nrf52_boot/fs/nffs/nffs.a(nffs_block.o)
 .debug_ranges  0x0000000000000828       0x38 /Users/briangiori/dev/newt/blegpio/bin/nrf52_boot/fs/nffs/nffs.a(nffs_crc.o)
 .debug_ranges  0x0000000000000860       0x88 /Users/briangiori/dev/newt/blegpio/bin/nrf52_boot/fs/nffs/nffs.a(nffs_gc.o)
 .debug_ranges  0x00000000000008e8       0x18 /Users/briangiori/dev/newt/blegpio/bin/nrf52_boot/hw/bsp/nrf52dk/nrf52dk.a(system_nrf52.o)
 .debug_ranges  0x0000000000000900       0x50 /Users/briangiori/dev/newt/blegpio/bin/nrf52_boot/hw/hal/hal.a(flash_map.o)
 .debug_ranges  0x0000000000000950       0x48 /Users/briangiori/dev/newt/blegpio/bin/nrf52_boot/hw/hal/hal.a(hal_flash.o)
 .debug_ranges  0x0000000000000998       0x10 /Users/briangiori/dev/newt/blegpio/bin/nrf52_boot/hw/mcu/nordic/nrf52xxx/nrf52xxx.a(hal_system_start.o)
 .debug_ranges  0x00000000000009a8      0x100 /Users/briangiori/dev/newt/blegpio/bin/nrf52_boot/libs/baselibc/baselibc.a(inline.o)
 .debug_ranges  0x0000000000000aa8       0x60 /Users/briangiori/dev/newt/blegpio/bin/nrf52_boot/libs/baselibc/baselibc.a(malloc.o)
 .debug_ranges  0x0000000000000b08       0x10 /Users/briangiori/dev/newt/blegpio/bin/nrf52_boot/libs/baselibc/baselibc.a(memset.o)
 .debug_ranges  0x0000000000000b18       0x10 /Users/briangiori/dev/newt/blegpio/bin/nrf52_boot/libs/baselibc/baselibc.a(strchr.o)
 .debug_ranges  0x0000000000000b28       0x10 /Users/briangiori/dev/newt/blegpio/bin/nrf52_boot/libs/baselibc/baselibc.a(strcpy.o)
 .debug_ranges  0x0000000000000b38       0x10 /Users/briangiori/dev/newt/blegpio/bin/nrf52_boot/libs/baselibc/baselibc.a(strlen.o)
 .debug_ranges  0x0000000000000b48       0x10 /Users/briangiori/dev/newt/blegpio/bin/nrf52_boot/libs/baselibc/baselibc.a(strncmp.o)
 .debug_ranges  0x0000000000000b58       0x88 /Users/briangiori/dev/newt/blegpio/bin/nrf52_boot/libs/bootutil/bootutil.a(bootutil_misc.o)
 .debug_ranges  0x0000000000000be0       0xa8 /Users/briangiori/dev/newt/blegpio/bin/nrf52_boot/libs/bootutil/bootutil.a(loader.o)
 .debug_ranges  0x0000000000000c88       0x28 /Users/briangiori/dev/newt/blegpio/bin/nrf52_boot/libs/bootutil/bootutil.a(image_validate.o)
 .debug_ranges  0x0000000000000cb0       0x20 /Users/briangiori/dev/newt/blegpio/bin/nrf52_boot/libs/cmsis-core/cmsis-core.a(cmsis_nvic.o)
 .debug_ranges  0x0000000000000cd0       0x50 /Users/briangiori/dev/newt/blegpio/bin/nrf52_boot/libs/mbedtls/mbedtls.a(sha256.o)
 .debug_ranges  0x0000000000000d20       0x30 /Users/briangiori/dev/newt/blegpio/bin/nrf52_boot/libs/os/os.a(os.o)
 .debug_ranges  0x0000000000000d50       0x70 /Users/briangiori/dev/newt/blegpio/bin/nrf52_boot/libs/os/os.a(os_arch_arm.o)
 .debug_ranges  0x0000000000000dc0       0x48 /Users/briangiori/dev/newt/blegpio/bin/nrf52_boot/libs/os/os.a(os_callout.o)
 .debug_ranges  0x0000000000000e08       0x30 /Users/briangiori/dev/newt/blegpio/bin/nrf52_boot/libs/os/os.a(os_eventq.o)
 .debug_ranges  0x0000000000000e38       0x18 /Users/briangiori/dev/newt/blegpio/bin/nrf52_boot/libs/os/os.a(os_fault.o)
 .debug_ranges  0x0000000000000e50       0x30 /Users/briangiori/dev/newt/blegpio/bin/nrf52_boot/libs/os/os.a(os_heap.o)
 .debug_ranges  0x0000000000000e80       0x28 /Users/briangiori/dev/newt/blegpio/bin/nrf52_boot/libs/os/os.a(os_mempool.o)
 .debug_ranges  0x0000000000000ea8       0x20 /Users/briangiori/dev/newt/blegpio/bin/nrf52_boot/libs/os/os.a(os_mutex.o)
 .debug_ranges  0x0000000000000ec8       0x78 /Users/briangiori/dev/newt/blegpio/bin/nrf52_boot/libs/os/os.a(os_sched.o)
 .debug_ranges  0x0000000000000f40       0x38 /Users/briangiori/dev/newt/blegpio/bin/nrf52_boot/libs/os/os.a(os_task.o)
 .debug_ranges  0x0000000000000f78       0x48 /Users/briangiori/dev/newt/blegpio/bin/nrf52_boot/libs/os/os.a(os_time.o)
 .debug_ranges  0x0000000000000fc0       0x48 /Users/briangiori/dev/newt/blegpio/bin/nrf52_boot/libs/os/os.a(os_sanity.o)
 .debug_ranges  0x0000000000001008       0x10 /Users/briangiori/dev/newt/blegpio/bin/nrf52_boot/libs/util/util.a(crc16.o)
 .debug_ranges  0x0000000000001018       0x68 /Users/briangiori/dev/newt/blegpio/bin/nrf52_boot/sys/config/config.a(config.o)
 .debug_ranges  0x0000000000001080       0x50 /Users/briangiori/dev/newt/blegpio/bin/nrf52_boot/sys/config/config.a(config_file.o)
 .debug_ranges  0x00000000000010d0       0x18 /Users/briangiori/dev/newt/blegpio/bin/nrf52_boot/sys/config/config.a(config_line.o)
 .debug_ranges  0x00000000000010e8       0x60 /Users/briangiori/dev/newt/blegpio/bin/nrf52_boot/sys/config/config.a(config_store.o)
 .debug_ranges  0x0000000000001148       0x48 /Users/briangiori/dev/newt/blegpio/bin/nrf52_boot/sys/log/log.a(log.o)
 .debug_ranges  0x0000000000001190       0x30 /Users/briangiori/dev/newt/blegpio/bin/nrf52_boot/sys/log/log.a(log_console.o)
 .debug_ranges  0x00000000000011c0       0x48 /Users/briangiori/dev/newt/blegpio/bin/nrf52_boot/fs/fs/fs.a(fs_file.o)
 .debug_ranges  0x0000000000001208       0x18 /Users/briangiori/dev/newt/blegpio/bin/nrf52_boot/fs/fs/fs.a(fs_mkdir.o)
 .debug_ranges  0x0000000000001220       0x10 /Users/briangiori/dev/newt/blegpio/bin/nrf52_boot/fs/fs/fs.a(fs_mount.o)
 .debug_ranges  0x0000000000001230       0x18 /Users/briangiori/dev/newt/blegpio/bin/nrf52_boot/fs/fs/fs.a(fsutil.o)
 .debug_ranges  0x0000000000001248       0x20 /Users/briangiori/dev/newt/blegpio/bin/nrf52_boot/hw/bsp/nrf52dk/nrf52dk.a(hal_bsp.o)
 .debug_ranges  0x0000000000001268       0x50 /Users/briangiori/dev/newt/blegpio/bin/nrf52_boot/hw/bsp/nrf52dk/nrf52dk.a(libc_stubs.o)
 .debug_ranges  0x00000000000012b8       0x18 /Users/briangiori/dev/newt/blegpio/bin/nrf52_boot/hw/bsp/nrf52dk/nrf52dk.a(os_bsp.o)
 .debug_ranges  0x00000000000012d0       0x10 /Users/briangiori/dev/newt/blegpio/bin/nrf52_boot/hw/bsp/nrf52dk/nrf52dk.a(sbrk.o)
 .debug_ranges  0x00000000000012e0       0x38 /Users/briangiori/dev/newt/blegpio/bin/nrf52_boot/hw/mcu/nordic/nrf52xxx/nrf52xxx.a(hal_flash.o)
 .debug_ranges  0x0000000000001318       0x88 /Users/briangiori/dev/newt/blegpio/bin/nrf52_boot/hw/mcu/nordic/nrf52xxx/nrf52xxx.a(hal_os_tick.o)
 .debug_ranges  0x00000000000013a0       0x18 /Users/briangiori/dev/newt/blegpio/bin/nrf52_boot/hw/mcu/nordic/nrf52xxx/nrf52xxx.a(hal_system.o)
 .debug_ranges  0x00000000000013b8       0x10 /Users/briangiori/dev/newt/blegpio/bin/nrf52_boot/libs/baselibc/baselibc.a(memcmp.o)
 .debug_ranges  0x00000000000013c8       0x10 /Users/briangiori/dev/newt/blegpio/bin/nrf52_boot/libs/baselibc/baselibc.a(memcpy.o)
 .debug_ranges  0x00000000000013d8       0x10 /Users/briangiori/dev/newt/blegpio/bin/nrf52_boot/libs/baselibc/baselibc.a(realloc.o)
 .debug_ranges  0x00000000000013e8       0x10 /Users/briangiori/dev/newt/blegpio/bin/nrf52_boot/libs/baselibc/baselibc.a(strcmp.o)
 .debug_ranges  0x00000000000013f8       0x10 /Users/briangiori/dev/newt/blegpio/bin/nrf52_boot/libs/baselibc/baselibc.a(strtok_r.o)
 .debug_ranges  0x0000000000001408       0x10 /Users/briangiori/dev/newt/blegpio/bin/nrf52_boot/libs/baselibc/baselibc.a(strsep.o)
 .debug_ranges  0x0000000000001418       0x10 /Users/briangiori/dev/newt/blegpio/bin/nrf52_boot/libs/baselibc/baselibc.a(strpbrk.o)
 .debug_ranges  0x0000000000001428       0x28 /Users/briangiori/dev/newt/blegpio/bin/nrf52_boot/libs/util/util.a(base64.o)

.debug_line     0x0000000000000000     0xcc3b
 .debug_line    0x0000000000000000      0x44d /Users/briangiori/dev/newt/blegpio/bin/nrf52_boot/apps/boot/boot.a(boot.o)
 .debug_line    0x000000000000044d      0x649 /Users/briangiori/dev/newt/blegpio/bin/nrf52_boot/fs/nffs/nffs.a(nffs.o)
 .debug_line    0x0000000000000a96      0x4b4 /Users/briangiori/dev/newt/blegpio/bin/nrf52_boot/fs/nffs/nffs.a(nffs_cache.o)
 .debug_line    0x0000000000000f4a      0x15e /Users/briangiori/dev/newt/blegpio/bin/nrf52_boot/fs/nffs/nffs.a(nffs_config.o)
 .debug_line    0x00000000000010a8      0x293 /Users/briangiori/dev/newt/blegpio/bin/nrf52_boot/fs/nffs/nffs.a(nffs_dir.o)
 .debug_line    0x000000000000133b      0x3e0 /Users/briangiori/dev/newt/blegpio/bin/nrf52_boot/fs/nffs/nffs.a(nffs_file.o)
 .debug_line    0x000000000000171b      0x301 /Users/briangiori/dev/newt/blegpio/bin/nrf52_boot/fs/nffs/nffs.a(nffs_flash.o)
 .debug_line    0x0000000000001a1c      0x378 /Users/briangiori/dev/newt/blegpio/bin/nrf52_boot/fs/nffs/nffs.a(nffs_format.o)
 .debug_line    0x0000000000001d94      0x42a /Users/briangiori/dev/newt/blegpio/bin/nrf52_boot/fs/nffs/nffs.a(nffs_hash.o)
 .debug_line    0x00000000000021be      0x7fd /Users/briangiori/dev/newt/blegpio/bin/nrf52_boot/fs/nffs/nffs.a(nffs_inode.o)
 .debug_line    0x00000000000029bb      0x4a0 /Users/briangiori/dev/newt/blegpio/bin/nrf52_boot/fs/nffs/nffs.a(nffs_misc.o)
 .debug_line    0x0000000000002e5b      0x3dc /Users/briangiori/dev/newt/blegpio/bin/nrf52_boot/fs/nffs/nffs.a(nffs_path.o)
 .debug_line    0x0000000000003237      0x5d0 /Users/briangiori/dev/newt/blegpio/bin/nrf52_boot/fs/nffs/nffs.a(nffs_restore.o)
 .debug_line    0x0000000000003807      0x375 /Users/briangiori/dev/newt/blegpio/bin/nrf52_boot/fs/nffs/nffs.a(nffs_write.o)
 .debug_line    0x0000000000003b7c      0x268 /Users/briangiori/dev/newt/blegpio/bin/nrf52_boot/fs/nffs/nffs.a(nffs_area.o)
 .debug_line    0x0000000000003de4      0x41c /Users/briangiori/dev/newt/blegpio/bin/nrf52_boot/fs/nffs/nffs.a(nffs_block.o)
 .debug_line    0x0000000000004200      0x2ae /Users/briangiori/dev/newt/blegpio/bin/nrf52_boot/fs/nffs/nffs.a(nffs_crc.o)
 .debug_line    0x00000000000044ae      0x3ee /Users/briangiori/dev/newt/blegpio/bin/nrf52_boot/fs/nffs/nffs.a(nffs_gc.o)
 .debug_line    0x000000000000489c       0x66 /Users/briangiori/dev/newt/blegpio/bin/nrf52_boot/hw/bsp/nrf52dk/nrf52dk.a(gcc_startup_nrf52.o)
 .debug_line    0x0000000000004902      0x264 /Users/briangiori/dev/newt/blegpio/bin/nrf52_boot/hw/bsp/nrf52dk/nrf52dk.a(system_nrf52.o)
 .debug_line    0x0000000000004b66      0x334 /Users/briangiori/dev/newt/blegpio/bin/nrf52_boot/hw/hal/hal.a(flash_map.o)
 .debug_line    0x0000000000004e9a      0x2aa /Users/briangiori/dev/newt/blegpio/bin/nrf52_boot/hw/hal/hal.a(hal_flash.o)
 .debug_line    0x0000000000005144      0x186 /Users/briangiori/dev/newt/blegpio/bin/nrf52_boot/hw/mcu/nordic/nrf52xxx/nrf52xxx.a(hal_system_start.o)
 .debug_line    0x00000000000052ca      0x392 /Users/briangiori/dev/newt/blegpio/bin/nrf52_boot/libs/baselibc/baselibc.a(inline.o)
 .debug_line    0x000000000000565c      0x21b /Users/briangiori/dev/newt/blegpio/bin/nrf52_boot/libs/baselibc/baselibc.a(malloc.o)
 .debug_line    0x0000000000005877       0x9c /Users/briangiori/dev/newt/blegpio/bin/nrf52_boot/libs/baselibc/baselibc.a(memset.o)
 .debug_line    0x0000000000005913       0x3a /Users/briangiori/dev/newt/blegpio/bin/nrf52_boot/libs/baselibc/baselibc.a(strchr.o)
 .debug_line    0x000000000000594d       0x43 /Users/briangiori/dev/newt/blegpio/bin/nrf52_boot/libs/baselibc/baselibc.a(strcpy.o)
 .debug_line    0x0000000000005990       0x98 /Users/briangiori/dev/newt/blegpio/bin/nrf52_boot/libs/baselibc/baselibc.a(strlen.o)
 .debug_line    0x0000000000005a28       0xa2 /Users/briangiori/dev/newt/blegpio/bin/nrf52_boot/libs/baselibc/baselibc.a(strncmp.o)
 .debug_line    0x0000000000005aca      0x528 /Users/briangiori/dev/newt/blegpio/bin/nrf52_boot/libs/bootutil/bootutil.a(bootutil_misc.o)
 .debug_line    0x0000000000005ff2      0x478 /Users/briangiori/dev/newt/blegpio/bin/nrf52_boot/libs/bootutil/bootutil.a(loader.o)
 .debug_line    0x000000000000646a      0x33a /Users/briangiori/dev/newt/blegpio/bin/nrf52_boot/libs/bootutil/bootutil.a(image_validate.o)
 .debug_line    0x00000000000067a4      0x21e /Users/briangiori/dev/newt/blegpio/bin/nrf52_boot/libs/cmsis-core/cmsis-core.a(cmsis_nvic.o)
 .debug_line    0x00000000000069c2      0x3cf /Users/briangiori/dev/newt/blegpio/bin/nrf52_boot/libs/mbedtls/mbedtls.a(sha256.o)
 .debug_line    0x0000000000006d91      0x3a9 /Users/briangiori/dev/newt/blegpio/bin/nrf52_boot/libs/os/os.a(os.o)
 .debug_line    0x000000000000713a      0x52e /Users/briangiori/dev/newt/blegpio/bin/nrf52_boot/libs/os/os.a(os_arch_arm.o)
 .debug_line    0x0000000000007668      0x39b /Users/briangiori/dev/newt/blegpio/bin/nrf52_boot/libs/os/os.a(os_callout.o)
 .debug_line    0x0000000000007a03      0x36a /Users/briangiori/dev/newt/blegpio/bin/nrf52_boot/libs/os/os.a(os_eventq.o)
 .debug_line    0x0000000000007d6d      0x2b9 /Users/briangiori/dev/newt/blegpio/bin/nrf52_boot/libs/os/os.a(os_fault.o)
 .debug_line    0x0000000000008026      0x37c /Users/briangiori/dev/newt/blegpio/bin/nrf52_boot/libs/os/os.a(os_heap.o)
 .debug_line    0x00000000000083a2      0x394 /Users/briangiori/dev/newt/blegpio/bin/nrf52_boot/libs/os/os.a(os_mempool.o)
 .debug_line    0x0000000000008736      0x360 /Users/briangiori/dev/newt/blegpio/bin/nrf52_boot/libs/os/os.a(os_mutex.o)
 .debug_line    0x0000000000008a96      0x443 /Users/briangiori/dev/newt/blegpio/bin/nrf52_boot/libs/os/os.a(os_sched.o)
 .debug_line    0x0000000000008ed9      0x399 /Users/briangiori/dev/newt/blegpio/bin/nrf52_boot/libs/os/os.a(os_task.o)
 .debug_line    0x0000000000009272      0x39c /Users/briangiori/dev/newt/blegpio/bin/nrf52_boot/libs/os/os.a(os_time.o)
 .debug_line    0x000000000000960e       0x8c /Users/briangiori/dev/newt/blegpio/bin/nrf52_boot/libs/os/os.a(HAL_CM4.o)
 .debug_line    0x000000000000969a      0x385 /Users/briangiori/dev/newt/blegpio/bin/nrf52_boot/libs/os/os.a(os_sanity.o)
 .debug_line    0x0000000000009a1f       0xfd /Users/briangiori/dev/newt/blegpio/bin/nrf52_boot/libs/util/util.a(crc16.o)
 .debug_line    0x0000000000009b1c      0x48f /Users/briangiori/dev/newt/blegpio/bin/nrf52_boot/sys/config/config.a(config.o)
 .debug_line    0x0000000000009fab      0x442 /Users/briangiori/dev/newt/blegpio/bin/nrf52_boot/sys/config/config.a(config_file.o)
 .debug_line    0x000000000000a3ed      0x151 /Users/briangiori/dev/newt/blegpio/bin/nrf52_boot/sys/config/config.a(config_line.o)
 .debug_line    0x000000000000a53e      0x3e1 /Users/briangiori/dev/newt/blegpio/bin/nrf52_boot/sys/config/config.a(config_store.o)
 .debug_line    0x000000000000a91f      0x3a9 /Users/briangiori/dev/newt/blegpio/bin/nrf52_boot/sys/log/log.a(log.o)
 .debug_line    0x000000000000acc8      0x2d1 /Users/briangiori/dev/newt/blegpio/bin/nrf52_boot/sys/log/log.a(log_console.o)
 .debug_line    0x000000000000af99      0x22c /Users/briangiori/dev/newt/blegpio/bin/nrf52_boot/fs/fs/fs.a(fs_file.o)
 .debug_line    0x000000000000b1c5      0x1ca /Users/briangiori/dev/newt/blegpio/bin/nrf52_boot/fs/fs/fs.a(fs_mkdir.o)
 .debug_line    0x000000000000b38f      0x1b5 /Users/briangiori/dev/newt/blegpio/bin/nrf52_boot/fs/fs/fs.a(fs_mount.o)
 .debug_line    0x000000000000b544      0x164 /Users/briangiori/dev/newt/blegpio/bin/nrf52_boot/fs/fs/fs.a(fsutil.o)
 .debug_line    0x000000000000b6a8      0x242 /Users/briangiori/dev/newt/blegpio/bin/nrf52_boot/hw/bsp/nrf52dk/nrf52dk.a(hal_bsp.o)
 .debug_line    0x000000000000b8ea      0x121 /Users/briangiori/dev/newt/blegpio/bin/nrf52_boot/hw/bsp/nrf52dk/nrf52dk.a(libc_stubs.o)
 .debug_line    0x000000000000ba0b      0x173 /Users/briangiori/dev/newt/blegpio/bin/nrf52_boot/hw/bsp/nrf52dk/nrf52dk.a(os_bsp.o)
 .debug_line    0x000000000000bb7e       0x95 /Users/briangiori/dev/newt/blegpio/bin/nrf52_boot/hw/bsp/nrf52dk/nrf52dk.a(sbrk.o)
 .debug_line    0x000000000000bc13      0x375 /Users/briangiori/dev/newt/blegpio/bin/nrf52_boot/hw/mcu/nordic/nrf52xxx/nrf52xxx.a(hal_flash.o)
 .debug_line    0x000000000000bf88      0x47f /Users/briangiori/dev/newt/blegpio/bin/nrf52_boot/hw/mcu/nordic/nrf52xxx/nrf52xxx.a(hal_os_tick.o)
 .debug_line    0x000000000000c407      0x1a0 /Users/briangiori/dev/newt/blegpio/bin/nrf52_boot/hw/mcu/nordic/nrf52xxx/nrf52xxx.a(hal_system.o)
 .debug_line    0x000000000000c5a7       0x9a /Users/briangiori/dev/newt/blegpio/bin/nrf52_boot/libs/baselibc/baselibc.a(memcmp.o)
 .debug_line    0x000000000000c641       0x9b /Users/briangiori/dev/newt/blegpio/bin/nrf52_boot/libs/baselibc/baselibc.a(memcpy.o)
 .debug_line    0x000000000000c6dc      0x125 /Users/briangiori/dev/newt/blegpio/bin/nrf52_boot/libs/baselibc/baselibc.a(realloc.o)
 .debug_line    0x000000000000c801       0x40 /Users/briangiori/dev/newt/blegpio/bin/nrf52_boot/libs/baselibc/baselibc.a(strcmp.o)
 .debug_line    0x000000000000c841       0xac /Users/briangiori/dev/newt/blegpio/bin/nrf52_boot/libs/baselibc/baselibc.a(strtok_r.o)
 .debug_line    0x000000000000c8ed       0x9d /Users/briangiori/dev/newt/blegpio/bin/nrf52_boot/libs/baselibc/baselibc.a(strsep.o)
 .debug_line    0x000000000000c98a       0x49 /Users/briangiori/dev/newt/blegpio/bin/nrf52_boot/libs/baselibc/baselibc.a(strpbrk.o)
 .debug_line    0x000000000000c9d3      0x268 /Users/briangiori/dev/newt/blegpio/bin/nrf52_boot/libs/util/util.a(base64.o)

.debug_str      0x0000000000000000     0x5048
 .debug_str     0x0000000000000000      0x446 /Users/briangiori/dev/newt/blegpio/bin/nrf52_boot/apps/boot/boot.a(boot.o)
                                        0x4c6 (size before relaxing)
 .debug_str     0x0000000000000446      0xad9 /Users/briangiori/dev/newt/blegpio/bin/nrf52_boot/fs/nffs/nffs.a(nffs.o)
                                        0xd84 (size before relaxing)
 .debug_str     0x0000000000000f1f      0x41e /Users/briangiori/dev/newt/blegpio/bin/nrf52_boot/fs/nffs/nffs.a(nffs_cache.o)
                                        0x8dc (size before relaxing)
 .debug_str     0x000000000000133d       0x1f /Users/briangiori/dev/newt/blegpio/bin/nrf52_boot/fs/nffs/nffs.a(nffs_config.o)
                                        0x22a (size before relaxing)
 .debug_str     0x000000000000135c       0x6f /Users/briangiori/dev/newt/blegpio/bin/nrf52_boot/fs/nffs/nffs.a(nffs_dir.o)
                                        0x55f (size before relaxing)
 .debug_str     0x00000000000013cb      0x220 /Users/briangiori/dev/newt/blegpio/bin/nrf52_boot/fs/nffs/nffs.a(nffs_file.o)
                                        0x7df (size before relaxing)
 .debug_str     0x00000000000015eb       0xe3 /Users/briangiori/dev/newt/blegpio/bin/nrf52_boot/fs/nffs/nffs.a(nffs_flash.o)
                                        0x3aa (size before relaxing)
 .debug_str     0x00000000000016ce      0x15e /Users/briangiori/dev/newt/blegpio/bin/nrf52_boot/fs/nffs/nffs.a(nffs_format.o)
                                        0x5b0 (size before relaxing)
 .debug_str     0x000000000000182c      0x15b /Users/briangiori/dev/newt/blegpio/bin/nrf52_boot/fs/nffs/nffs.a(nffs_hash.o)
                                        0x4fe (size before relaxing)
 .debug_str     0x0000000000001987      0x4a1 /Users/briangiori/dev/newt/blegpio/bin/nrf52_boot/fs/nffs/nffs.a(nffs_inode.o)
                                        0xe54 (size before relaxing)
 .debug_str     0x0000000000001e28       0xfd /Users/briangiori/dev/newt/blegpio/bin/nrf52_boot/fs/nffs/nffs.a(nffs_misc.o)
                                        0x91d (size before relaxing)
 .debug_str     0x0000000000001f25       0x94 /Users/briangiori/dev/newt/blegpio/bin/nrf52_boot/fs/nffs/nffs.a(nffs_path.o)
                                        0x5ac (size before relaxing)
 .debug_str     0x0000000000001fb9      0x4a8 /Users/briangiori/dev/newt/blegpio/bin/nrf52_boot/fs/nffs/nffs.a(nffs_restore.o)
                                        0xe07 (size before relaxing)
 .debug_str     0x0000000000002461      0x18b /Users/briangiori/dev/newt/blegpio/bin/nrf52_boot/fs/nffs/nffs.a(nffs_write.o)
                                        0x814 (size before relaxing)
 .debug_str     0x00000000000025ec       0x5a /Users/briangiori/dev/newt/blegpio/bin/nrf52_boot/fs/nffs/nffs.a(nffs_area.o)
                                        0x3c1 (size before relaxing)
 .debug_str     0x0000000000002646       0x8e /Users/briangiori/dev/newt/blegpio/bin/nrf52_boot/fs/nffs/nffs.a(nffs_block.o)
                                        0x7dc (size before relaxing)
 .debug_str     0x00000000000026d4       0x5f /Users/briangiori/dev/newt/blegpio/bin/nrf52_boot/fs/nffs/nffs.a(nffs_crc.o)
                                        0x449 (size before relaxing)
 .debug_str     0x0000000000002733      0x142 /Users/briangiori/dev/newt/blegpio/bin/nrf52_boot/fs/nffs/nffs.a(nffs_gc.o)
                                        0x805 (size before relaxing)
 .debug_str     0x0000000000002875      0x244 /Users/briangiori/dev/newt/blegpio/bin/nrf52_boot/hw/bsp/nrf52dk/nrf52dk.a(system_nrf52.o)
                                        0x3bb (size before relaxing)
 .debug_str     0x0000000000002ab9      0x1b7 /Users/briangiori/dev/newt/blegpio/bin/nrf52_boot/hw/hal/hal.a(flash_map.o)
                                        0x3ec (size before relaxing)
 .debug_str     0x0000000000002c70       0x78 /Users/briangiori/dev/newt/blegpio/bin/nrf52_boot/hw/hal/hal.a(hal_flash.o)
                                        0x334 (size before relaxing)
 .debug_str     0x0000000000002ce8       0xaa /Users/briangiori/dev/newt/blegpio/bin/nrf52_boot/hw/mcu/nordic/nrf52xxx/nrf52xxx.a(hal_system_start.o)
                                        0x228 (size before relaxing)
 .debug_str     0x0000000000002d92      0x13c /Users/briangiori/dev/newt/blegpio/bin/nrf52_boot/libs/baselibc/baselibc.a(inline.o)
                                        0x29d (size before relaxing)
 .debug_str     0x0000000000002ece      0x166 /Users/briangiori/dev/newt/blegpio/bin/nrf52_boot/libs/baselibc/baselibc.a(malloc.o)
                                        0x350 (size before relaxing)
 .debug_str     0x0000000000003034        0x9 /Users/briangiori/dev/newt/blegpio/bin/nrf52_boot/libs/baselibc/baselibc.a(memset.o)
                                        0x19f (size before relaxing)
 .debug_str     0x000000000000303d        0x9 /Users/briangiori/dev/newt/blegpio/bin/nrf52_boot/libs/baselibc/baselibc.a(strchr.o)
                                        0x121 (size before relaxing)
 .debug_str     0x0000000000003046        0x9 /Users/briangiori/dev/newt/blegpio/bin/nrf52_boot/libs/baselibc/baselibc.a(strcpy.o)
                                        0x121 (size before relaxing)
 .debug_str     0x000000000000304f        0x9 /Users/briangiori/dev/newt/blegpio/bin/nrf52_boot/libs/baselibc/baselibc.a(strlen.o)
                                        0x128 (size before relaxing)
 .debug_str     0x0000000000003058        0xa /Users/briangiori/dev/newt/blegpio/bin/nrf52_boot/libs/baselibc/baselibc.a(strncmp.o)
                                        0x138 (size before relaxing)
 .debug_str     0x0000000000003062      0x2ba /Users/briangiori/dev/newt/blegpio/bin/nrf52_boot/libs/bootutil/bootutil.a(bootutil_misc.o)
                                        0x610 (size before relaxing)
 .debug_str     0x000000000000331c      0x170 /Users/briangiori/dev/newt/blegpio/bin/nrf52_boot/libs/bootutil/bootutil.a(loader.o)
                                        0x602 (size before relaxing)
 .debug_str     0x000000000000348c       0xef /Users/briangiori/dev/newt/blegpio/bin/nrf52_boot/libs/bootutil/bootutil.a(image_validate.o)
                                        0x3de (size before relaxing)
 .debug_str     0x000000000000357b      0x3ad /Users/briangiori/dev/newt/blegpio/bin/nrf52_boot/libs/cmsis-core/cmsis-core.a(cmsis_nvic.o)
                                        0x559 (size before relaxing)
 .debug_str     0x0000000000003928       0xff /Users/briangiori/dev/newt/blegpio/bin/nrf52_boot/libs/mbedtls/mbedtls.a(sha256.o)
                                        0x2f4 (size before relaxing)
 .debug_str     0x0000000000003a27      0x209 /Users/briangiori/dev/newt/blegpio/bin/nrf52_boot/libs/os/os.a(os.o)
                                        0x5fc (size before relaxing)
 .debug_str     0x0000000000003c30      0x234 /Users/briangiori/dev/newt/blegpio/bin/nrf52_boot/libs/os/os.a(os_arch_arm.o)
                                        0x9a6 (size before relaxing)
 .debug_str     0x0000000000003e64       0xce /Users/briangiori/dev/newt/blegpio/bin/nrf52_boot/libs/os/os.a(os_callout.o)
                                        0x5e9 (size before relaxing)
 .debug_str     0x0000000000003f32       0xd0 /Users/briangiori/dev/newt/blegpio/bin/nrf52_boot/libs/os/os.a(os_eventq.o)
                                        0x4d7 (size before relaxing)
 .debug_str     0x0000000000004002       0x81 /Users/briangiori/dev/newt/blegpio/bin/nrf52_boot/libs/os/os.a(os_fault.o)
                                        0x2f9 (size before relaxing)
 .debug_str     0x0000000000004083       0x42 /Users/briangiori/dev/newt/blegpio/bin/nrf52_boot/libs/os/os.a(os_heap.o)
                                        0x4e3 (size before relaxing)
 .debug_str     0x00000000000040c5       0xb8 /Users/briangiori/dev/newt/blegpio/bin/nrf52_boot/libs/os/os.a(os_mempool.o)
                                        0x439 (size before relaxing)
 .debug_str     0x000000000000417d       0x2b /Users/briangiori/dev/newt/blegpio/bin/nrf52_boot/libs/os/os.a(os_mutex.o)
                                        0x530 (size before relaxing)
 .debug_str     0x00000000000041a8       0xa8 /Users/briangiori/dev/newt/blegpio/bin/nrf52_boot/libs/os/os.a(os_sched.o)
                                        0x603 (size before relaxing)
 .debug_str     0x0000000000004250      0x137 /Users/briangiori/dev/newt/blegpio/bin/nrf52_boot/libs/os/os.a(os_task.o)
                                        0x61f (size before relaxing)
 .debug_str     0x0000000000004387      0x118 /Users/briangiori/dev/newt/blegpio/bin/nrf52_boot/libs/os/os.a(os_time.o)
                                        0x5f3 (size before relaxing)
 .debug_str     0x000000000000449f      0x100 /Users/briangiori/dev/newt/blegpio/bin/nrf52_boot/libs/os/os.a(os_sanity.o)
                                        0x5f1 (size before relaxing)
 .debug_str     0x000000000000459f       0x5b /Users/briangiori/dev/newt/blegpio/bin/nrf52_boot/libs/util/util.a(crc16.o)
                                        0x1df (size before relaxing)
 .debug_str     0x00000000000045fa      0x1fa /Users/briangiori/dev/newt/blegpio/bin/nrf52_boot/sys/config/config.a(config.o)
                                        0x55c (size before relaxing)
 .debug_str     0x00000000000047f4      0x128 /Users/briangiori/dev/newt/blegpio/bin/nrf52_boot/sys/config/config.a(config_file.o)
                                        0x4b5 (size before relaxing)
 .debug_str     0x000000000000491c       0x56 /Users/briangiori/dev/newt/blegpio/bin/nrf52_boot/sys/config/config.a(config_line.o)
                                        0x231 (size before relaxing)
 .debug_str     0x0000000000004972       0x93 /Users/briangiori/dev/newt/blegpio/bin/nrf52_boot/sys/config/config.a(config_store.o)
                                        0x482 (size before relaxing)
 .debug_str     0x0000000000004a05       0xf0 /Users/briangiori/dev/newt/blegpio/bin/nrf52_boot/sys/log/log.a(log.o)
                                        0x486 (size before relaxing)
 .debug_str     0x0000000000004af5       0x73 /Users/briangiori/dev/newt/blegpio/bin/nrf52_boot/sys/log/log.a(log_console.o)
                                        0x45f (size before relaxing)
 .debug_str     0x0000000000004b68       0x5d /Users/briangiori/dev/newt/blegpio/bin/nrf52_boot/fs/fs/fs.a(fs_file.o)
                                        0x303 (size before relaxing)
 .debug_str     0x0000000000004bc5        0xb /Users/briangiori/dev/newt/blegpio/bin/nrf52_boot/fs/fs/fs.a(fs_mkdir.o)
                                        0x297 (size before relaxing)
 .debug_str     0x0000000000004bd0       0x10 /Users/briangiori/dev/newt/blegpio/bin/nrf52_boot/fs/fs/fs.a(fs_mount.o)
                                        0x28b (size before relaxing)
 .debug_str     0x0000000000004be0        0x9 /Users/briangiori/dev/newt/blegpio/bin/nrf52_boot/fs/fs/fs.a(fsutil.o)
                                        0x21f (size before relaxing)
 .debug_str     0x0000000000004be9       0xb3 /Users/briangiori/dev/newt/blegpio/bin/nrf52_boot/hw/bsp/nrf52dk/nrf52dk.a(hal_bsp.o)
                                        0x297 (size before relaxing)
 .debug_str     0x0000000000004c9c       0x31 /Users/briangiori/dev/newt/blegpio/bin/nrf52_boot/hw/bsp/nrf52dk/nrf52dk.a(libc_stubs.o)
                                        0x1dc (size before relaxing)
 .debug_str     0x0000000000004ccd       0x2f /Users/briangiori/dev/newt/blegpio/bin/nrf52_boot/hw/bsp/nrf52dk/nrf52dk.a(os_bsp.o)
                                        0x233 (size before relaxing)
 .debug_str     0x0000000000004cfc       0x34 /Users/briangiori/dev/newt/blegpio/bin/nrf52_boot/hw/bsp/nrf52dk/nrf52dk.a(sbrk.o)
                                        0x1cc (size before relaxing)
 .debug_str     0x0000000000004d30       0xe9 /Users/briangiori/dev/newt/blegpio/bin/nrf52_boot/hw/mcu/nordic/nrf52xxx/nrf52xxx.a(hal_flash.o)
                                        0x40a (size before relaxing)
 .debug_str     0x0000000000004e19      0x151 /Users/briangiori/dev/newt/blegpio/bin/nrf52_boot/hw/mcu/nordic/nrf52xxx/nrf52xxx.a(hal_os_tick.o)
                                        0x890 (size before relaxing)
 .debug_str     0x0000000000004f6a       0x1e /Users/briangiori/dev/newt/blegpio/bin/nrf52_boot/hw/mcu/nordic/nrf52xxx/nrf52xxx.a(hal_system.o)
                                        0x2aa (size before relaxing)
 .debug_str     0x0000000000004f88        0x9 /Users/briangiori/dev/newt/blegpio/bin/nrf52_boot/libs/baselibc/baselibc.a(memcmp.o)
                                        0x131 (size before relaxing)
 .debug_str     0x0000000000004f91        0x9 /Users/briangiori/dev/newt/blegpio/bin/nrf52_boot/libs/baselibc/baselibc.a(memcpy.o)
                                        0x19f (size before relaxing)
 .debug_str     0x0000000000004f9a       0x19 /Users/briangiori/dev/newt/blegpio/bin/nrf52_boot/libs/baselibc/baselibc.a(realloc.o)
                                        0x214 (size before relaxing)
 .debug_str     0x0000000000004fb3        0x9 /Users/briangiori/dev/newt/blegpio/bin/nrf52_boot/libs/baselibc/baselibc.a(strcmp.o)
                                        0x12f (size before relaxing)
 .debug_str     0x0000000000004fbc       0x1f /Users/briangiori/dev/newt/blegpio/bin/nrf52_boot/libs/baselibc/baselibc.a(strtok_r.o)
                                        0x139 (size before relaxing)
 .debug_str     0x0000000000004fdb       0x19 /Users/briangiori/dev/newt/blegpio/bin/nrf52_boot/libs/baselibc/baselibc.a(strsep.o)
                                        0x137 (size before relaxing)
 .debug_str     0x0000000000004ff4        0xa /Users/briangiori/dev/newt/blegpio/bin/nrf52_boot/libs/baselibc/baselibc.a(strpbrk.o)
                                        0x123 (size before relaxing)
 .debug_str     0x0000000000004ffe       0x4a /Users/briangiori/dev/newt/blegpio/bin/nrf52_boot/libs/util/util.a(base64.o)
                                        0x27c (size before relaxing)

.debug_frame    0x0000000000000000     0x2db4
 .debug_frame   0x0000000000000000       0x38 /Users/briangiori/dev/newt/blegpio/bin/nrf52_boot/apps/boot/boot.a(boot.o)
 .debug_frame   0x0000000000000038      0x228 /Users/briangiori/dev/newt/blegpio/bin/nrf52_boot/fs/nffs/nffs.a(nffs.o)
 .debug_frame   0x0000000000000260      0x138 /Users/briangiori/dev/newt/blegpio/bin/nrf52_boot/fs/nffs/nffs.a(nffs_cache.o)
 .debug_frame   0x0000000000000398       0x20 /Users/briangiori/dev/newt/blegpio/bin/nrf52_boot/fs/nffs/nffs.a(nffs_config.o)
 .debug_frame   0x00000000000003b8       0x64 /Users/briangiori/dev/newt/blegpio/bin/nrf52_boot/fs/nffs/nffs.a(nffs_dir.o)
 .debug_frame   0x000000000000041c       0xb8 /Users/briangiori/dev/newt/blegpio/bin/nrf52_boot/fs/nffs/nffs.a(nffs_file.o)
 .debug_frame   0x00000000000004d4       0x9c /Users/briangiori/dev/newt/blegpio/bin/nrf52_boot/fs/nffs/nffs.a(nffs_flash.o)
 .debug_frame   0x0000000000000570       0x7c /Users/briangiori/dev/newt/blegpio/bin/nrf52_boot/fs/nffs/nffs.a(nffs_format.o)
 .debug_frame   0x00000000000005ec      0x140 /Users/briangiori/dev/newt/blegpio/bin/nrf52_boot/fs/nffs/nffs.a(nffs_hash.o)
 .debug_frame   0x000000000000072c      0x3b4 /Users/briangiori/dev/newt/blegpio/bin/nrf52_boot/fs/nffs/nffs.a(nffs_inode.o)
 .debug_frame   0x0000000000000ae0      0x108 /Users/briangiori/dev/newt/blegpio/bin/nrf52_boot/fs/nffs/nffs.a(nffs_misc.o)
 .debug_frame   0x0000000000000be8       0xf4 /Users/briangiori/dev/newt/blegpio/bin/nrf52_boot/fs/nffs/nffs.a(nffs_path.o)
 .debug_frame   0x0000000000000cdc       0xa8 /Users/briangiori/dev/newt/blegpio/bin/nrf52_boot/fs/nffs/nffs.a(nffs_restore.o)
 .debug_frame   0x0000000000000d84       0x40 /Users/briangiori/dev/newt/blegpio/bin/nrf52_boot/fs/nffs/nffs.a(nffs_write.o)
 .debug_frame   0x0000000000000dc4       0x98 /Users/briangiori/dev/newt/blegpio/bin/nrf52_boot/fs/nffs/nffs.a(nffs_area.o)
 .debug_frame   0x0000000000000e5c      0x168 /Users/briangiori/dev/newt/blegpio/bin/nrf52_boot/fs/nffs/nffs.a(nffs_block.o)
 .debug_frame   0x0000000000000fc4       0xbc /Users/briangiori/dev/newt/blegpio/bin/nrf52_boot/fs/nffs/nffs.a(nffs_crc.o)
 .debug_frame   0x0000000000001080       0xd0 /Users/briangiori/dev/newt/blegpio/bin/nrf52_boot/fs/nffs/nffs.a(nffs_gc.o)
 .debug_frame   0x0000000000001150       0x30 /Users/briangiori/dev/newt/blegpio/bin/nrf52_boot/hw/bsp/nrf52dk/nrf52dk.a(system_nrf52.o)
 .debug_frame   0x0000000000001180      0x108 /Users/briangiori/dev/newt/blegpio/bin/nrf52_boot/hw/hal/hal.a(flash_map.o)
 .debug_frame   0x0000000000001288      0x110 /Users/briangiori/dev/newt/blegpio/bin/nrf52_boot/hw/hal/hal.a(hal_flash.o)
 .debug_frame   0x0000000000001398       0x20 /Users/briangiori/dev/newt/blegpio/bin/nrf52_boot/hw/mcu/nordic/nrf52xxx/nrf52xxx.a(hal_system_start.o)
 .debug_frame   0x00000000000013b8      0x258 /Users/briangiori/dev/newt/blegpio/bin/nrf52_boot/libs/baselibc/baselibc.a(inline.o)
 .debug_frame   0x0000000000001610       0xe0 /Users/briangiori/dev/newt/blegpio/bin/nrf52_boot/libs/baselibc/baselibc.a(malloc.o)
 .debug_frame   0x00000000000016f0       0x20 /Users/briangiori/dev/newt/blegpio/bin/nrf52_boot/libs/baselibc/baselibc.a(memset.o)
 .debug_frame   0x0000000000001710       0x28 /Users/briangiori/dev/newt/blegpio/bin/nrf52_boot/libs/baselibc/baselibc.a(strchr.o)
 .debug_frame   0x0000000000001738       0x20 /Users/briangiori/dev/newt/blegpio/bin/nrf52_boot/libs/baselibc/baselibc.a(strcpy.o)
 .debug_frame   0x0000000000001758       0x20 /Users/briangiori/dev/newt/blegpio/bin/nrf52_boot/libs/baselibc/baselibc.a(strlen.o)
 .debug_frame   0x0000000000001778       0x28 /Users/briangiori/dev/newt/blegpio/bin/nrf52_boot/libs/baselibc/baselibc.a(strncmp.o)
 .debug_frame   0x00000000000017a0       0xf0 /Users/briangiori/dev/newt/blegpio/bin/nrf52_boot/libs/bootutil/bootutil.a(bootutil_misc.o)
 .debug_frame   0x0000000000001890       0xd0 /Users/briangiori/dev/newt/blegpio/bin/nrf52_boot/libs/bootutil/bootutil.a(loader.o)
 .debug_frame   0x0000000000001960       0x40 /Users/briangiori/dev/newt/blegpio/bin/nrf52_boot/libs/bootutil/bootutil.a(image_validate.o)
 .debug_frame   0x00000000000019a0       0x40 /Users/briangiori/dev/newt/blegpio/bin/nrf52_boot/libs/cmsis-core/cmsis-core.a(cmsis_nvic.o)
 .debug_frame   0x00000000000019e0      0x108 /Users/briangiori/dev/newt/blegpio/bin/nrf52_boot/libs/mbedtls/mbedtls.a(sha256.o)
 .debug_frame   0x0000000000001ae8       0x84 /Users/briangiori/dev/newt/blegpio/bin/nrf52_boot/libs/os/os.a(os.o)
 .debug_frame   0x0000000000001b6c       0xe0 /Users/briangiori/dev/newt/blegpio/bin/nrf52_boot/libs/os/os.a(os_arch_arm.o)
 .debug_frame   0x0000000000001c4c       0xa4 /Users/briangiori/dev/newt/blegpio/bin/nrf52_boot/libs/os/os.a(os_callout.o)
 .debug_frame   0x0000000000001cf0       0xc4 /Users/briangiori/dev/newt/blegpio/bin/nrf52_boot/libs/os/os.a(os_eventq.o)
 .debug_frame   0x0000000000001db4       0x40 /Users/briangiori/dev/newt/blegpio/bin/nrf52_boot/libs/os/os.a(os_fault.o)
 .debug_frame   0x0000000000001df4       0x90 /Users/briangiori/dev/newt/blegpio/bin/nrf52_boot/libs/os/os.a(os_heap.o)
 .debug_frame   0x0000000000001e84       0x7c /Users/briangiori/dev/newt/blegpio/bin/nrf52_boot/libs/os/os.a(os_mempool.o)
 .debug_frame   0x0000000000001f00       0x60 /Users/briangiori/dev/newt/blegpio/bin/nrf52_boot/libs/os/os.a(os_mutex.o)
 .debug_frame   0x0000000000001f60      0x118 /Users/briangiori/dev/newt/blegpio/bin/nrf52_boot/libs/os/os.a(os_sched.o)
 .debug_frame   0x0000000000002078       0x64 /Users/briangiori/dev/newt/blegpio/bin/nrf52_boot/libs/os/os.a(os_task.o)
 .debug_frame   0x00000000000020dc      0x108 /Users/briangiori/dev/newt/blegpio/bin/nrf52_boot/libs/os/os.a(os_time.o)
 .debug_frame   0x00000000000021e4       0xe4 /Users/briangiori/dev/newt/blegpio/bin/nrf52_boot/libs/os/os.a(os_sanity.o)
 .debug_frame   0x00000000000022c8       0x2c /Users/briangiori/dev/newt/blegpio/bin/nrf52_boot/libs/util/util.a(crc16.o)
 .debug_frame   0x00000000000022f4      0x164 /Users/briangiori/dev/newt/blegpio/bin/nrf52_boot/sys/config/config.a(config.o)
 .debug_frame   0x0000000000002458       0xd4 /Users/briangiori/dev/newt/blegpio/bin/nrf52_boot/sys/config/config.a(config_file.o)
 .debug_frame   0x000000000000252c       0x50 /Users/briangiori/dev/newt/blegpio/bin/nrf52_boot/sys/config/config.a(config_line.o)
 .debug_frame   0x000000000000257c       0xd0 /Users/briangiori/dev/newt/blegpio/bin/nrf52_boot/sys/config/config.a(config_store.o)
 .debug_frame   0x000000000000264c       0xe8 /Users/briangiori/dev/newt/blegpio/bin/nrf52_boot/sys/log/log.a(log.o)
 .debug_frame   0x0000000000002734       0x60 /Users/briangiori/dev/newt/blegpio/bin/nrf52_boot/sys/log/log.a(log_console.o)
 .debug_frame   0x0000000000002794       0x9c /Users/briangiori/dev/newt/blegpio/bin/nrf52_boot/fs/fs/fs.a(fs_file.o)
 .debug_frame   0x0000000000002830       0x30 /Users/briangiori/dev/newt/blegpio/bin/nrf52_boot/fs/fs/fs.a(fs_mkdir.o)
 .debug_frame   0x0000000000002860       0x20 /Users/briangiori/dev/newt/blegpio/bin/nrf52_boot/fs/fs/fs.a(fs_mount.o)
 .debug_frame   0x0000000000002880       0x50 /Users/briangiori/dev/newt/blegpio/bin/nrf52_boot/fs/fs/fs.a(fsutil.o)
 .debug_frame   0x00000000000028d0       0x40 /Users/briangiori/dev/newt/blegpio/bin/nrf52_boot/hw/bsp/nrf52dk/nrf52dk.a(hal_bsp.o)
 .debug_frame   0x0000000000002910       0xa8 /Users/briangiori/dev/newt/blegpio/bin/nrf52_boot/hw/bsp/nrf52dk/nrf52dk.a(libc_stubs.o)
 .debug_frame   0x00000000000029b8       0x3c /Users/briangiori/dev/newt/blegpio/bin/nrf52_boot/hw/bsp/nrf52dk/nrf52dk.a(os_bsp.o)
 .debug_frame   0x00000000000029f4       0x28 /Users/briangiori/dev/newt/blegpio/bin/nrf52_boot/hw/bsp/nrf52dk/nrf52dk.a(sbrk.o)
 .debug_frame   0x0000000000002a1c       0xa4 /Users/briangiori/dev/newt/blegpio/bin/nrf52_boot/hw/mcu/nordic/nrf52xxx/nrf52xxx.a(hal_flash.o)
 .debug_frame   0x0000000000002ac0       0xc8 /Users/briangiori/dev/newt/blegpio/bin/nrf52_boot/hw/mcu/nordic/nrf52xxx/nrf52xxx.a(hal_os_tick.o)
 .debug_frame   0x0000000000002b88       0x30 /Users/briangiori/dev/newt/blegpio/bin/nrf52_boot/hw/mcu/nordic/nrf52xxx/nrf52xxx.a(hal_system.o)
 .debug_frame   0x0000000000002bb8       0x28 /Users/briangiori/dev/newt/blegpio/bin/nrf52_boot/libs/baselibc/baselibc.a(memcmp.o)
 .debug_frame   0x0000000000002be0       0x28 /Users/briangiori/dev/newt/blegpio/bin/nrf52_boot/libs/baselibc/baselibc.a(memcpy.o)
 .debug_frame   0x0000000000002c08       0x3c /Users/briangiori/dev/newt/blegpio/bin/nrf52_boot/libs/baselibc/baselibc.a(realloc.o)
 .debug_frame   0x0000000000002c44       0x20 /Users/briangiori/dev/newt/blegpio/bin/nrf52_boot/libs/baselibc/baselibc.a(strcmp.o)
 .debug_frame   0x0000000000002c64       0x2c /Users/briangiori/dev/newt/blegpio/bin/nrf52_boot/libs/baselibc/baselibc.a(strtok_r.o)
 .debug_frame   0x0000000000002c90       0x2c /Users/briangiori/dev/newt/blegpio/bin/nrf52_boot/libs/baselibc/baselibc.a(strsep.o)
 .debug_frame   0x0000000000002cbc       0x2c /Users/briangiori/dev/newt/blegpio/bin/nrf52_boot/libs/baselibc/baselibc.a(strpbrk.o)
 .debug_frame   0x0000000000002ce8       0x80 /Users/briangiori/dev/newt/blegpio/bin/nrf52_boot/libs/util/util.a(base64.o)
 .debug_frame   0x0000000000002d68       0x20 /usr/local/Cellar/gcc-arm-none-eabi-49/20150609/bin/../lib/gcc/arm-none-eabi/4.9.3/../../../../arm-none-eabi/lib/armv7e-m/libg.a(lib_a-errno.o)
 .debug_frame   0x0000000000002d88       0x2c /usr/local/Cellar/gcc-arm-none-eabi-49/20150609/bin/../lib/gcc/arm-none-eabi/4.9.3/../../../../arm-none-eabi/lib/armv7e-m/libg.a(lib_a-init.o)
